Microsoft (R) Macro Assembler Version 14.29.30158.0	    03/16/25 04:53:12
*Temp List Reverser     (Proj6_pereze4.asm		     Page 1 - 1


				TITLE Temp List Reverser     (Proj6_pereze4.asm)

				; Author: Eduardo Perez
				; Last Modified: March 16, 2025
				; OSU email address: pereze4@oregonstate.edu
				; Course number/section:   CS271 Section 400
				; Project Number: 6               Due Date: March 16, 2025
				; Description: This program loads a text file. The file contains Temperature values, each separated by a delimiter.
				; Each Temperature values are extracted ONE AT A TIME; converted to it's integer value format, and then stored in an array.
				; The values are then displayed in reverse order as they are stored.
				; Implementation note 1:    LODSB is used in detecting delimiter positions and presence of Cr Lf. 
				;                           MOVSB is utilized in extracting current Temp reading iteration from the file.
				;                           LODSB is utlized to convert a Temp reading from str to int format
				; Implementation note 2:    Can accept Temp readings with prefix '+' or '-', and/or a leading zero
				; Implementation note 3:    Program dynamically determines the number of columns of the character delimited file. It doesnt utilize TEMPS_PER_DAY
				; Limitation:               Maximum of about 150 Temperature readings and 50 rows
				; Limitation:               Can not handle an empty line
				; Limitation:               Can not handle rows of different length

				INCLUDE Irvine32.inc
			      C ; Include file for Irvine32.lib             (Irvine32.inc)
			      C 
			      C ;OPTION CASEMAP:NONE		; optional: make identifiers case-sensitive
			      C 
			      C INCLUDE SmallWin.inc		; MS-Windows prototypes, structures, and constants
			      C .NOLIST
			      C .LIST
			      C 
			      C INCLUDE VirtualKeys.inc
			      C ; VirtualKeys.inc
			      C .NOLIST
			      C .LIST
			      C 
			      C 
			      C .NOLIST
			      C .LIST
			      C 


				;=================================
				; Macros

				;=================================================================================
				; Description:
				; Parameters:
				; Local Variables:
				; Registers used:
				mGetString MACRO str_Message, buffer, bufferSize, fileByteSize
				    PUSH    EAX
				    PUSH    ECX
				    PUSH    EDX
				    ; Display prompt message
				    MOV EDX, OFFSET str_Message
				    CALL WriteString  
				    
				    ; Get user input
				    MOV EDX, OFFSET buffer
				    MOV ECX, bufferSize
				    CALL ReadString  

				    ; Store number of bytes read
				    MOV fileByteSize, EAX

				    POP     EDX
				    POP     ECX
				    POP     EAX
				ENDM

				;=================================================================================
				; Description:
				; Parameters:
				; Local Variables:
				; Registers used:

				mDisplayString MACRO offset_Message
				    PUSH    EDX

				    MOV     EDX, offset_Message
				    CALL    WriteString

				    POP     EDX
				ENDM



				;=================================================================================
				; Description:
				; Parameters:
				; Local Variables:
				; Registers used:

				mDisplayChar MACRO charValue
				    PUSH EAX
				    
				    MOV AL, charValue
				    CALL WriteChar

				    POP EAX
				ENDM



				;=================================
				; Global Variables
 = 00000005			TEMPS_PER_DAY = 5
 = 0000002C			DELIMITER   EQU ','


 00000000			.data

 00000000 00000000		fileHandle                      DWORD ?                     

 00000004 47 69 76 65 20	str_MsgPromptFileName           BYTE    "Give the name of file containing the Temperature Readings: ", 0
	   74 68 65 20 6E
	   61 6D 65 20 6F
	   66 20 66 69 6C
	   65 20 63 6F 6E
	   74 61 69 6E 69
	   6E 67 20 74 68
	   65 20 54 65 6D
	   70 65 72 61 74
	   75 72 65 20 52
	   65 61 64 69 6E
	   67 73 3A 20 00


 00000040  00000064 [		str_NameOfFile                  BYTE    100 DUP(0)                  ; Memory buffer for file name
	    00
	   ]
 000000A4  000003E8 [		file_TempReadings               BYTE    1000 DUP(255)               ; Memory buffer for file containing the temperature readings
	    FF
	   ]
				                  
 0000048C 00000063		int_BufferSizeFileName          DWORD   99
 00000490 00000000		int_LenNameOfFile               DWORD   ?                           ; Stores the number of bytes read
 00000494 000003E7		int_BufferSizeTemperatureFile   DWORD   999

 00000498 54 68 65 20 6E	str_MsgNumberofRows             BYTE    "The number of rows: ", 0
	   75 6D 62 65 72
	   20 6F 66 20 72
	   6F 77 73 3A 20
	   00
 000004AD 54 68 65 20 6E	str_MsgNumberofColumns          BYTE    "The number of columns: ", 0
	   75 6D 62 65 72
	   20 6F 66 20 63
	   6F 6C 75 6D 6E
	   73 3A 20 00
 000004C5 54 68 65 20 70	str_MsgPrevDlmtrPos             BYTE    "The previous delimiter position: ", 0
	   72 65 76 69 6F
	   75 73 20 64 65
	   6C 69 6D 69 74
	   65 72 20 70 6F
	   73 69 74 69 6F
	   6E 3A 20 00
 000004E7 54 68 65 20 63	str_MsgCrntDlmtrPos             BYTE    "The current delimiter position: ", 0
	   75 72 72 65 6E
	   74 20 64 65 6C
	   69 6D 69 74 65
	   72 20 70 6F 73
	   69 74 69 6F 6E
	   3A 20 00
 00000508 54 68 65 20 4C	str_MsgLoadedFile               BYTE    "The Loaded file: ", 0
	   6F 61 64 65 64
	   20 66 69 6C 65
	   3A 20 00
 0000051A 54 68 65 20 65	str_MsgCurrentTempIteration     BYTE    "The extracted current Temperature reading: ", 0
	   78 74 72 61 63
	   74 65 64 20 63
	   75 72 72 65 6E
	   74 20 54 65 6D
	   70 65 72 61 74
	   75 72 65 20 72
	   65 61 64 69 6E
	   67 3A 20 00
 00000546 54 68 65 20 73	str_MsgSign                     BYTE    "The sign bit of the extracted current Temperature reading: ", 0
	   69 67 6E 20 62
	   69 74 20 6F 66
	   20 74 68 65 20
	   65 78 74 72 61
	   63 74 65 64 20
	   63 75 72 72 65
	   6E 74 20 54 65
	   6D 70 65 72 61
	   74 75 72 65 20
	   72 65 61 64 69
	   6E 67 3A 20 00
 00000582 54 68 65 20 65	str_MsgSignRemoved              BYTE    "The extracted current Temperature reading, sign removed if any: ", 0
	   78 74 72 61 63
	   74 65 64 20 63
	   75 72 72 65 6E
	   74 20 54 65 6D
	   70 65 72 61 74
	   75 72 65 20 72
	   65 61 64 69 6E
	   67 2C 20 73 69
	   67 6E 20 72 65
	   6D 6F 76 65 64
	   20 69 66 20 61
	   6E 79 3A 20 00
 000005C3 54 68 65 20 63	str_MsgConvertedInt             BYTE    "The converted integer value: ", 0
	   6F 6E 76 65 72
	   74 65 64 20 69
	   6E 74 65 67 65
	   72 20 76 61 6C
	   75 65 3A 20 00
 000005E1 54 68 65 20 69	str_MsgAfterSignCheck           BYTE    "The integer value after the sign check: ", 0
	   6E 74 65 67 65
	   72 20 76 61 6C
	   75 65 20 61 66
	   74 65 72 20 74
	   68 65 20 73 69
	   67 6E 20 63 68
	   65 63 6B 3A 20
	   00
 0000060A 54 68 65 20 61	str_MsgAddressOfMatrix          BYTE    "The address of the matrix in the calling procedure: ",0
	   64 64 72 65 73
	   73 20 6F 66 20
	   74 68 65 20 6D
	   61 74 72 69 78
	   20 69 6E 20 74
	   68 65 20 63 61
	   6C 6C 69 6E 67
	   20 70 72 6F 63
	   65 64 75 72 65
	   3A 20 00
 0000063F 54 68 65 20 6C	str_MsgCrntRowLen               BYTE    "The length of the current row of the matrix: ",0
	   65 6E 67 74 68
	   20 6F 66 20 74
	   68 65 20 63 75
	   72 72 65 6E 74
	   20 72 6F 77 20
	   6F 66 20 74 68
	   65 20 6D 61 74
	   72 69 78 3A 20
	   00
 0000066D 54 68 65 20 66	str_MsgFirstElementCrntRow      BYTE    "The first element of the current row of the matrix: ",0
	   69 72 73 74 20
	   65 6C 65 6D 65
	   6E 74 20 6F 66
	   20 74 68 65 20
	   63 75 72 72 65
	   6E 74 20 72 6F
	   77 20 6F 66 20
	   74 68 65 20 6D
	   61 74 72 69 78
	   3A 20 00
 000006A2 0A 0D 54 68 65	str_MsgDisplayReversedRow       BYTE    10, 13, "The Corrected Temperature Readings:", 10, 13, 0
	   20 43 6F 72 72
	   65 63 74 65 64
	   20 54 65 6D 70
	   65 72 61 74 75
	   72 65 20 52 65
	   61 64 69 6E 67
	   73 3A 0A 0D 00


 000006CA  00000190 [		arr_TempMatrix                  DWORD   400 DUP(-1000)
	    FFFFFC18
	   ]


				; For debugging PROC GetSign
 00000D0A 50 4F 49 4E 54	STR_MSGPOINTER         BYTE "POINTER VALUE: ",0
	   45 52 20 56 41
	   4C 55 45 3A 20
	   00
 00000D1A 50 41 53 53 45	STR_MSGPASSEDSTRING    BYTE "PASSED STRING: ",0
	   44 20 53 54 52
	   49 4E 47 3A 20
	   00
 00000D2A 46 49 52 53 54	STR_MSGFIRSTCHAR       BYTE "FIRST CHAR: ",0
	   20 43 48 41 52
	   3A 20 00
 00000D37 20 41 53 43 49	STR_MSGASCII           BYTE " ASCII: ",0
	   49 3A 20 00
 00000D40 53 48 49 46 54	STR_MSGSHIFTING        BYTE "SHIFTING STRING...",0
	   49 4E 47 20 53
	   54 52 49 4E 47
	   2E 2E 2E 00
 00000D53 53 48 49 46 54	STR_MSGSHIFTEDSTRING   BYTE "SHIFTED STRING: ",0
	   45 44 20 53 54
	   52 49 4E 47 3A
	   20 00
 00000D64 49 4E 54 20 53	STR_MSGINTSIGN         BYTE "INT SIGN: ",0
	   49 47 4E 3A 20
	   00

				; For debugging PROC ConvertStrToInteger
 00000D6F 4C 45 4E 47 54	STR_MSGLENGTH        BYTE "LENGTH: ",0
	   48 3A 20 00
 00000D78 43 4F 4E 56 45	STR_MSGCONVERTING    BYTE "CONVERTING STRING:",0
	   52 54 49 4E 47
	   20 53 54 52 49
	   4E 47 3A 00
 00000D8B 43 4F 4E 56 45	STR_MSGCONVERTED     BYTE "CONVERTED INTEGER: ",0
	   52 54 45 44 20
	   49 4E 54 45 47
	   45 52 3A 20 00

				; For Debugging PROC Save Temp to Matrix
 00000D9F 43 55 52 52 45	str_MsgCurrentTemp          BYTE "CURRENT TEMP: ",0
	   4E 54 20 54 45
	   4D 50 3A 20 00
 00000DAE 52 4F 57 20 49	str_MsgRowIndex             BYTE "ROW INDEX: ",0
	   4E 44 45 58 3A
	   20 00
 00000DBA 43 4F 4C 20 49	str_MsgColIndex             BYTE "COL INDEX: ",0
	   4E 44 45 58 3A
	   20 00
 00000DC6 4D 41 54 52 49	str_MsgMatrixPtr            BYTE "MATRIX PTR: ",0
	   58 20 50 54 52
	   3A 20 00
 00000DD3 45 4C 45 4D 45	str_MsgElementIndex         BYTE "ELEMENT INDEX: ",0
	   4E 54 20 49 4E
	   44 45 58 3A 20
	   00
 00000DE3 42 59 54 45 20	str_MsgByteOffset           BYTE "BYTE OFFSET: ",0
	   4F 46 46 53 45
	   54 3A 20 00
 00000DF1 44 45 53 54 49	str_MsgDestAddress          BYTE "DESTINATION ADDRESS: ",0
	   4E 41 54 49 4F
	   4E 20 41 44 44
	   52 45 53 53 3A
	   20 00
 00000E07 53 41 56 45 44	str_MsgSavedInteger         BYTE "SAVED INTEGER: ",0
	   20 49 4E 54 45
	   47 45 52 3A 20
	   00



 00000000			.code
 00000000			main PROC



				    ;=================================
				    ; Get File name
				    mGetString str_MsgPromptFileName, str_NameOfFile, int_BufferSizeFileName, int_LenNameOfFile
 00000000  50		     1	    PUSH    EAX
 00000001  51		     1	    PUSH    ECX
 00000002  52		     1	    PUSH    EDX
 00000003  BA 00000004 R     1	    MOV EDX, OFFSET str_MsgPromptFileName
 00000008  E8 00000000 E     1	    CALL WriteString  
 0000000D  BA 00000040 R     1	    MOV EDX, OFFSET str_NameOfFile
 00000012  8B 0D 0000048C R  1	    MOV ECX, int_BufferSizeFileName
 00000018  E8 00000000 E     1	    CALL ReadString  
 0000001D  A3 00000490 R     1	    MOV int_LenNameOfFile, EAX
 00000022  5A		     1	    POP     EDX
 00000023  59		     1	    POP     ECX
 00000024  58		     1	    POP     EAX



				    ;=================================
				    ; Open File
 00000025  BA 00000040 R	    MOV     EDX, OFFSET str_NameOfFile
 0000002A  E8 00000000 E	    CALL    OpenInputFile
 0000002F  A3 00000000 R	    MOV     fileHandle, EAX

 00000034  8B 0D 00000494 R	    MOV     ECX, int_BufferSizeTemperatureFile
 0000003A  BA 000000A4 R	    MOV     EDX, OFFSET file_TempReadings
 0000003F  E8 00000000 E	    CALL    ReadFromFile



				    ;=================================
 00000044  68 000006CA R	    PUSH    OFFSET  arr_TempMatrix
 00000049  68 000000A4 R	    PUSH    OFFSET  file_TempReadings
 0000004E  E8 00000134		    CALL    ParseTempsFromString


				    ;=================================
				    ; Close File
 00000053  A1 00000000 R	    MOV     EAX, fileHandle 
 00000058  E8 00000000 E	    CALL    CloseFile

				    ;=================================
				    ;Print Temp Matrix

				    mDisplayString OFFSET str_MsgDisplayReversedRow
 0000005D  52		     1	    PUSH    EDX
 0000005E  BA 000006A2 R     1	    MOV     EDX, OFFSET str_MsgDisplayReversedRow
 00000063  E8 00000000 E     1	    CALL    WriteString
 00000068  5A		     1	    POP     EDX

 00000069  68 000006CA R	    PUSH    OFFSET  arr_TempMatrix
 0000006E  E8 00000079		    CALL    WriteTempsReverse


					Invoke ExitProcess,0	; exit to operating system
 00000073  6A 00	   *	    push   +000000000h
 00000075  E8 00000000 E   *	    call   ExitProcess
 0000007A			main ENDP

				; ==========================================================================================================================
				; Takes in an integer, then prints in screen
				; receives: Address of the Temperature array
				; returns:
				; preconditions: passed address references of array
				; postconditions: values saved in array
				; registers changed: none
				; ==========================================================================================================================
 0000007A			WriteVal PROC
				    LOCAL buffer[5]:BYTE    ; Buffer for ASCII number (3 digits + sign + NULL)
				    LOCAL index:DWORD       ; Buffer index
				    LOCAL isNegative:BYTE   ; Flag for negative number
				    LOCAL digitCount:DWORD  ; Counter for max 3 digits

				    ; Set up stack frame
 0000007A  55		   *	    push   ebp
 0000007B  8B EC	   *	    mov    ebp, esp
 0000007D  83 C4 EC	   *	    add    esp, 0FFFFFFECh
 00000080  55			    PUSH    EBP
 00000081  8B EC		    MOV     EBP, ESP

				    ; Preserve registers
 00000083  50			    PUSH    EAX
 00000084  53			    PUSH    EBX
 00000085  51			    PUSH    ECX
 00000086  52			    PUSH    EDX

				    ; Load parameter (correct way)
 00000087  8B 45 08		    MOV     EAX, [EBP+8]    ; Retrieve parameter using EBP+8

				    ; Initialize flags and index
 0000008A  C7 45 F4		    MOV     index, 3
	   00000003
 00000091  C6 45 F3 00		    MOV     BYTE PTR isNegative, 0
 00000095  C7 45 EC		    MOV     digitCount, 0
	   00000000

				    ; Check if negative
 0000009C  83 F8 00		    CMP     EAX, 0
 0000009F  7D 06		    JGE     ConvertNumber
 000000A1  C6 45 F3 01		    MOV     BYTE PTR isNegative, 1
 000000A5  F7 D8		    NEG     EAX

 000000A7			ConvertNumber:
				    ; Convert number to ASCII (store last 3 digits)
 000000A7  B9 0000000A		    MOV     ECX, 10

 000000AC			DigitLoop:
 000000AC  83 7D EC 03		    CMP     digitCount, 3
 000000B0  7D 19		    JGE     PrintNumber

 000000B2  33 D2		    XOR     EDX, EDX
 000000B4  F7 F1		    DIV     ECX
 000000B6  80 C2 30		    ADD     DL, '0'
 000000B9  88 54 2D EF		    MOV     buffer[index], DL
 000000BD  FF 4D F4		    DEC     index
 000000C0  FF 45 EC		    INC     digitCount
 000000C3  85 C0		    TEST    EAX, EAX
 000000C5  75 E5		    JNZ     DigitLoop

				    ; NULL-terminate the string
 000000C7  C6 45 FF 00		    MOV     buffer[4], 0

 000000CB			PrintNumber:
 000000CB  80 7D F3 01		    CMP     BYTE PTR isNegative, 1
 000000CF  75 09		    JNE     PrintDigits
				    mDisplayChar '-'   ; Print negative sign
 000000D1  50		     1	    PUSH EAX
 000000D2  B0 2D	     1	    MOV AL, '-'
 000000D4  E8 00000000 E     1	    CALL WriteChar
 000000D9  58		     1	    POP EAX

 000000DA			PrintDigits:
 000000DA  8D 54 2D F0		    LEA     EDX, buffer[index+1]
 000000DE  E8 00000000 E	    CALL    WriteString   ; Display string

				    ; Restore registers and clean up stack frame
 000000E3  5A			    POP     EDX
 000000E4  59			    POP     ECX
 000000E5  5B			    POP     EBX
 000000E6  58			    POP     EAX
 000000E7  5D			    POP     EBP
 000000E8  C9		   *	    leave  
 000000E9  C2 0004		    RET     4   ; Remove 4 bytes (1 parameter)

 000000EC			WriteVal ENDP




				;---------------------------------------------------------------
				; Procedure: WriteTempsReverse
				; Function:    Receives an OFFSET to a 2D matrix.
				;              For each row (each row ends with -999; the entire matrix
				;              ends with -1000), prints the row’s elements in reverse order.
				;              After each element (including the last), prints the delimiter
				;              defined as the global constant DELIMITER.
				;              Debug printouts are included to verify correct parameter passing.
				;
				; Local Variables:
				;   crntTemp              - Holds the current matrix element (signed integer)
				;   rowIndex              - Reverse printing counter for the current row
				;   colIndex              - Number of valid elements in the current row
				;   offset_CrntRow   - Holds the pointer to the current location in the matrix
				;   lastElementPtr        - Holds the pointer to the last valid element in the row
				;
				; Must use at least one of these: STOSD, LODSD, MOVSD, CMPSD, SCASD.
				; In this code, LODSD is used to load the next element while counting columns.
				;---------------------------------------------------------------

 000000EC			WriteTempsReverse PROC

				    ; local variables:
				    LOCAL   crnt_Temp:DWORD              ; Current temperature value from matrix element
				    LOCAL   row_Index:DWORD              ; holds the current row
				    LOCAL   col_Index:DWORD              ; Number of valid elements in the current row
				    LOCAL   offset_TempMatrix:DWORD        ; Holds the pointer to the current row in the matrix
				    LOCAL   offset_CrntRow:DWORD        ; Holds the pointer to the current row in the matrix
				    LOCAL   len_Row:DWORD                ; Pointer to first element in the row
				    LOCAL   offset_StrMsg:DWORD            ; OFFSET of a string message



 000000EC  55		   *	    push   ebp
 000000ED  8B EC	   *	    mov    ebp, esp
 000000EF  83 C4 E4	   *	    add    esp, 0FFFFFFE4h
 000000F2  50			    PUSH    EAX
 000000F3  53			    PUSH    EBX
 000000F4  51			    PUSH    ECX
 000000F5  52			    PUSH    EDX
 000000F6  56			    PUSH    ESI
 000000F7  57			    PUSH    EDI

				    ;-----------------------------------------
				    ; Parameters:
				    ; [EBP+8]           offset_Arr_TempMatrix
				    ; [EBP + 12]        str_MsgDisplayReversedRow



				    ; Load parameter into a local
 000000F8  8B 45 08		    MOV     EAX, [EBP+8]                ; Load the procedure parameter (pointer to matrix)
 000000FB  89 45 F0		    MOV     offset_TempMatrix, EAX      ; Store it into our local variable
 000000FE  89 45 EC		    MOV     offset_CrntRow, EAX         ; Initialize location of current Row to be same as the matrix
 00000101  8B 45 0C		    MOV     EAX, [EBP + 12]
 00000104  89 45 E4		    MOV     offset_StrMsg, EAX





				    ;-----------------------------------------
				    ; Outer Loop: Process each row until reach end of matrix (-1000)
				    ; Initialize outer Loop:
 00000107  B8 00000000		    MOV     EAX, 0
 0000010C  89 45 F8		    MOV     row_Index, EAX

				    ; Loop thru each row in the matrix
 0000010F			    _LoopRows:

				        ; Check if end of file
				        ; Debug Printout - check first element of row
				        ;CALL    CrLf
				        ;MOV     EDX, OFFSET str_MsgFirstElementCrntRow
				        ;CALL    WriteString
 0000010F  8B 5D EC		        MOV     EBX, [offset_CrntRow]
 00000112  8B 03		        MOV     EAX, [EBX]
				        ;CALL    WriteInt

 00000114  3D FFFFFC18		        CMP     EAX, -1000
 00000119  74 5D		        JE      _End_LoopRows

				        ; Determine current Row length, excluding sentinel value
				        ; Load the parameter (array base address)
 0000011B  8B 7D EC		        MOV     EDI, offset_CrntRow     ; Get offset of current Row

				        ; Initialize counter
 0000011E  33 C9		        XOR     ECX, ECX          ; Set count to 0

				        ; Detect the sentinel value. SCASD compares [EDI] with EAX and increments EDI by 4
 00000120  B8 FFFFFC19		        MOV     EAX, -999         ; Sentinel value
 00000125			        _ScanLoop:
 00000125  AF			            SCASD                     ; Compare [EDI] with EAX, increment EDI by 4
 00000126  74 03		            JZ      _StoreRowLen        ; If match is found, exit loop
 00000128  41			            INC     ECX               ; Increment counter
 00000129  EB FA		            JMP     _ScanLoop          ; Continue scanning

 0000012B			        _StoreRowLen:
 0000012B  89 4D E8		            MOV     len_Row, ECX      ; Store the final count in the local variable
 0000012E  8B 45 E8		            MOV     EAX, len_Row

				            ; Debuggin printout
				            ;CALL    CrLf
				            ;MOV     EDX, OFFSET str_MsgCrntRowLen
				            ;CALL    WriteString
				            ;CALL    WriteDec
				            ;CALL    CrLf

				        ;-----------------------------------------
				        ; Print row
				        ; Compute last element address




 00000131  8B 45 E8		        MOV     EAX, len_Row              ; Get len_Row
 00000134  C1 E0 02		        SHL     EAX, 2                    ; Multiply by 4 (DWORD size)
 00000137  03 45 EC		        ADD     EAX, offset_CrntRow        ; Compute last element address
 0000013A  83 E8 04		        SUB     EAX, 4                     ; Adjust to last valid element
 0000013D  8B F0		        MOV     ESI, EAX                    ; Store in ESI (used for LODSD)


				        ; Initialize Inner loop
 0000013F  8B 4D E8		        MOV     ECX, len_Row
 00000142  E8 00000000 E	        CALL    CrLf
				        ; Iterates thru all elements in the current row, in reverse order


 00000147			        _LoopColumns:
 00000147  FD			            STD                                ; Set DF for reverse iteration. 
 00000148  83 F9 00		            CMP     ECX, 0                     ; Check if all elements are printed
 0000014B  74 12		            JZ      _End_LoopColumns             ; Exit if no elements left

 0000014D  AD			            LODSD                              ; Load value from [ESI] into EAX, decrement ESI
 0000014E  E8 00000000 E	            CALL    WriteInt
				            
 00000153  B8 0000002C		            MOV     EAX, DELIMITER 
 00000158  E8 00000000 E	            CALL    WriteChar 

 0000015D  E2 E8		            LOOP    _LoopColumns

 0000015F			        _End_LoopColumns:

				    
				    ;Setup next row
				    ; Obtain next row address
 0000015F  8B 45 E8		    MOV     EAX, len_Row
 00000162  C1 E0 02		    SHL     EAX, 2
 00000165  03 45 EC		    ADD     EAX, offset_CrntRow
 00000168  83 C0 04		    ADD     EAX, 4                     ; Add to compensate the sentinel value
 0000016B  89 45 EC		    MOV     offset_CrntRow, EAX
 0000016E  8B 45 F8		    MOV     EAX, row_Index
 00000171  40			    INC     EAX
 00000172  89 45 F8		    MOV     row_Index, EAX

				    ;Debuging prinouts
				    ;CALL    Crlf                       ; Newline after row
				    ;MOV     EDX, OFFSET str_MsgFirstElementCrntRow
				    ;CALL    WriteString
				    ;MOV     EBX, [offset_CrntRow]
				    ;MOV     EAX, [EBX]
				    ;CALL    WriteInt
				    
 00000175  FC			    CLD                                ; Clear DF
 00000176  EB 97		    JMP     _LoopRows

 00000178			    _End_LoopRows:
 00000178  E8 00000000 E	    CALL    CrLf

 0000017D  5F			    POP     EDI
 0000017E  5E			    POP     ESI
 0000017F  5A			    POP     EDX
 00000180  59			    POP     ECX
 00000181  5B			    POP     EBX
 00000182  58			    POP     EAX
 00000183  C9		   *	    leave  
 00000184  C2 0004		    RET     4
 00000187			WriteTempsReverse ENDP
Proj6_pereze4.asm(450) : warning A6004:procedure argument or local not referenced : crnt_Temp
Proj6_pereze4.asm(450) : warning A6004:procedure argument or local not referenced : col_Index


				; ==========================================================================================================================
				; Extracts temperature readings, in string delimited format, from memory. Then saves the readings in an arrary as integers
				; receives: Address of the Temperature array
				; returns:
				; preconditions: passed address references of array
				; postconditions: values saved in array
				; registers changed: none
				; ==========================================================================================================================
 00000187			ParseTempsFromString PROC
				    LOCAL   str_CrntTemp[5]:BYTE, int_Len_Str_CrntTemp:DWORD, int_Sign:DWORD, int_RowIndex:DWORD, int_ColIndex:DWORD, int_CrntTemp:DWORD, int_PrevDlmterPos:DWORD, int_CrntDlmterPos:DWORD, offset_File_TempReadings:DWORD, int_LenMatrix:DWORD, int_WidthMatrix:DWORD

 00000187  55		   *	    push   ebp
 00000188  8B EC	   *	    mov    ebp, esp
 0000018A  83 C4 D0	   *	    add    esp, 0FFFFFFD0h
 0000018D  50			    PUSH	EAX
 0000018E  53			    PUSH	EBX
 0000018F  51			    PUSH	ECX
 00000190  52			    PUSH	EDX
 00000191  56			    PUSH	ESI
 00000192  57			    PUSH	EDI


				    ; Stack Layout:
				    ; [EBP + 12] = OFFSET   arr_TempMatrix
				    ; [EBP + 8] = OFFSET file_TempReadings
				    ; [EBP + 4] = return address
				    ; [EBP] = old ebp

				    ; move parameter to local variable
 00000193  8B 45 08		    MOV     EAX, [EBP + 8]
 00000196  89 45 D8		    MOV     offset_File_TempReadings, EAX



				    ;==================================================================
				    ; Get File Size
 00000199  8D 45 D0		    LEA     EAX, int_WidthMatrix
 0000019C  50			    PUSH    EAX
 0000019D  8D 45 D4		    LEA     EAX, int_LenMatrix
 000001A0  50			    PUSH    EAX
 000001A1  FF 75 D8		    PUSH    offset_File_TempReadings
 000001A4  E8 000002E9		    CALL    Get_MatrixSize

				    ;CALL    CrLf
				    ;MOV     EDX, OFFSET str_MsgNumberofRows
				    ;CALL    WriteString
				    ;MOV     EAX, int_LenMatrix
				    ;CALL    WriteDec

				    ;CALL    CrLf
				    ;MOV     EDX, OFFSET str_MsgNumberofColumns
				    ;CALL    WriteString
				    ;MOV     EAX, int_WidthMatrix
				    ;CALL    WriteDec

				    ;==================================================================
				    ; Initialize outer loop (rows)
 000001A9  B8 00000000		    MOV     EAX, 0
 000001AE  89 45 EC		    MOV     int_RowIndex, EAX
 000001B1  B8 FFFFFFFF		    MOV     EAX, -1
 000001B6  89 45 E0		    MOV     int_PrevDlmterPos, EAX


				    ; Start outer loop (rows)
 000001B9			    _Loop_Rows:
				        ; Initialize inner loop (columns)
 000001B9  B8 00000000		        MOV     EAX, 0
 000001BE  89 45 E8		        MOV     int_ColIndex, EAX


				        ; Start inner loop (columns)
 000001C1			        _Loop_Columns:



				            ;==================================================================
				            ; Get current delimiter position
				    
 000001C1  FF 75 D8		            PUSH    offset_File_TempReadings
 000001C4  8D 45 DC		            LEA     EAX, int_CrntDlmterPos
 000001C7  50			            PUSH    EAX
				            ;MOV     EAX, -1                            ; Used for modular testing
				            ;MOV     int_PrevDlmterPos, EAX             ; Used for modular testing
 000001C8  FF 75 E0		            PUSH    int_PrevDlmterPos
 000001CB  E8 00000250		            CALL    Get_NextDlmtrPos
				            ;!!!!! After current line is done, in the loop, need to add 2 to int_PrevDlmterPos to compensate for CrLf

				   
				           ;==================================================================
				           ; Get an iteration of Temp reading, save as string
 000001D0  8B 45 D8		           MOV      EAX, offset_File_TempReadings
 000001D3  50			           PUSH     EAX
 000001D4  8D 45 FB		           LEA      EAX, str_CrntTemp
 000001D7  50			           PUSH     EAX
 000001D8  8B 45 E0		           MOV      EAX, int_PrevDlmterPos
 000001DB  50			           PUSH     EAX
 000001DC  8B 45 DC		           MOV      EAX, int_CrntDlmterPos
 000001DF  50			           PUSH     EAX
 000001E0  E8 000001EB		           CALL     Extract_StrCrntTemp
				           ;MOV      EDX, OFFSET str_MsgCurrentTempIteration
				           ;CALL     CrLf
				           ;CALL     WriteString
				           ;LEA      EDX, str_CrntTemp
				           ;CALL     WriteString


				           ;==================================================================
				           ; Detect the sign, store this info then removes the sign from the string
 000001E5  8D 45 F0		            LEA      EAX, int_Sign
 000001E8  50			            PUSH     EAX
 000001E9  8D 45 FB		            LEA      EAX, str_CrntTemp
 000001EC  50			            PUSH     EAX
 000001ED  E8 0000016C		            CALL     GetSign
				            ; Debug Print
				            ;CALL    CrLf
				            ;MOV     EDX, OFFSET str_MsgSign
				            ;CALL    WriteString
				            ;MOV     EAX, int_Sign
				            ;CALL    WriteDec
				            ;CALL    CrLf     
				            ;MOV     EDX, OFFSET str_MsgSignRemoved
				            ;CALL    WriteString
				            ;LEA     EDX, str_CrntTemp
				            ;CALL    WriteString
				            ;CALL    CrLf


				    
				           ;==================================================================
				           ; Convert current Temp Reading to Integer

 000001F2  8D 45 E4		            LEA     EAX, int_CrntTemp
 000001F5  50			            PUSH    EAX
 000001F6  8D 45 FB		            LEA     EAX, str_CrntTemp
 000001F9  50			            PUSH    EAX
 000001FA  E8 000000FB		            CALL    ConvertStringToInteger
				            ; Debugging printouts
				            ;CALL    CrLf
				            ;MOV     EDX, OFFSET str_MsgConvertedInt
				            ;CALL    WriteString
				            ;MOV     EAX, int_CrntTemp
				            ;CALL    WriteInt


				           ;==================================================================
				           ; Check if reference sign bit is set. 
				           ; If yes, negate the  stored integer Temp reading
				    
 000001FF  8B 45 F0		            MOV     EAX, int_Sign
 00000202  83 F8 01		            CMP     EAX, 1
 00000205  75 09		            JNE     _Save_ToTempMatrix
 00000207  8D 45 E4		            LEA     EAX, int_CrntTemp
 0000020A  50			            PUSH    EAX
 0000020B  E8 000000C7		            CALL    Negate_CurntTemp


 00000210			            _Save_ToTempMatrix:
				                ; Debugging printouts
				                ;CALL    CrLf
				                ;MOV     EDX, OFFSET str_MsgAfterSignCheck
				                ;CALL    WriteString
				                ;MOV     EAX, int_CrntTemp
				                ;CALL    WriteInt
				                ;CALL    CrLf

				   
				               ;==================================================================
				               ; Save current Temp iteration to Matrix
				               ; If yes, negate the  stored integer Temp reading
				    
				                ; DEBUG PRINT: Print the address of arr_TempMatrix.
				                ;CALL    CrLf
				                ;MOV     EDX, OFFSET str_MsgAddressOfMatrix
				                ;CALL    WriteString
				                ;LEA     EAX, arr_TempMatrix
				                ;CALL    WriteDec
				                ;CALL    CrLf

				                ; Test Row and Col values
				                ;MOV     EAX, 1                         ; for modular testing only
				                ;MOV     int_RowIndex, EAX              ; for modular testing only
				                ;MOV     EAX, 0                         ; for modular testing only
				                ;MOV     int_ColIndex, EAX              ; for modular testing only
 00000210  FF 75 D0		                PUSH    int_WidthMatrix
 00000213  8B 45 0C		                MOV     EAX, [EBP + 12]                 ; PUSH OFFSET arr_TempMatrix
 00000216  50			                PUSH    EAX 
 00000217  FF 75 E8		                PUSH    int_ColIndex
 0000021A  FF 75 EC		                PUSH    int_RowIndex
 0000021D  FF 75 E4		                PUSH    int_CrntTemp
 00000220  E8 00000056		                CALL    Save_CrntTemp_ToMatrix


				            ; Check if Inner Loop is done


 00000225  8B 45 E8		            MOV     EAX, int_ColIndex
 00000228  40			            INC     EAX
 00000229  89 45 E8		            MOV     int_ColIndex, EAX
 0000022C  3B 45 D0		            CMP     EAX, int_WidthMatrix
 0000022F  73 08		            JAE      _End_LoopColumns

				           


				            ; Preapare for next inner loop iteration
 00000231  8B 45 DC		            MOV     EAX, int_CrntDlmterPos
 00000234  89 45 E0		            MOV     int_PrevDlmterPos, EAX
 00000237  EB 88		            JMP     _Loop_Columns



				            ; End inner loop
 00000239			            _End_LoopColumns:
				            ; Save_SentinelValue:
 00000239  FF 75 D0		            PUSH    int_WidthMatrix
 0000023C  8B 45 0C		            MOV     EAX, [EBP + 12]                 ; PUSH OFFSET arr_TempMatrix
 0000023F  50			            PUSH    EAX 
 00000240  FF 75 E8		            PUSH    int_ColIndex
 00000243  FF 75 EC		            PUSH    int_RowIndex
 00000246  B8 FFFFFC19		            MOV     EAX, -999
 0000024B  50			            PUSH    EAX
 0000024C  E8 0000002A		            CALL    Save_CrntTemp_ToMatrix


 00000251  8B 45 DC		            MOV     EAX, int_CrntDlmterPos
 00000254  89 45 E0		            MOV     int_PrevDlmterPos, EAX
 00000257  8B 45 E0		            MOV     EAX, int_PrevDlmterPos
 0000025A  83 C0 02		            ADD     EAX, 2
 0000025D  89 45 E0		            MOV     int_PrevDlmterPos, EAX
				            
				        ; Check if Outer Loop is done  
				        
 00000260  8B 45 EC		        MOV     EAX, int_RowIndex
 00000263  40			        INC     EAX
 00000264  89 45 EC		        MOV     int_RowIndex, EAX
 00000267  3B 45 D4		        CMP     EAX, int_LenMatrix
 0000026A  73 05		        JAE      _End_LoopRows

				        ; Prepare next Outer Loop iteration
 0000026C  E9 FFFFFF48		        JMP     _Loop_Rows

				        ; End Outer Loop
 00000271			        _End_LoopRows:


				    ; ============================================
				    ; Print All Elements of arr_TempMatrix

				    ;MOV     ESI, [EBP + 12]                 ; Move to ESI, array OFFSET
				    ;MOV     ECX, 250 ; Set loop counter (total elements)

				    ;_PrintLoop:
				        ;MOV     EAX, [ESI]                  ; Load current array element
				        ;CALL    WriteInt                      ; Print number
				        ;MOV     AL, ' '
				        ;CALL    WriteChar                      ; Print space for separation

				        ;ADD     ESI, 4                          ; Move to next DWORD (4 bytes)
				        ;LOOP    _PrintLoop                     ; Repeat until ECX = 0

				    ;   Cleanup then Finish Proc
 00000271  5F			    POP	    EDI
 00000272  5E			    POP 	ESI
 00000273  5A			    POP	    EDX
 00000274  59			    POP	    ECX
 00000275  5B			    POP 	EBX
 00000276  58			    POP	    EAX
 00000277  C9		   *	    leave  
 00000278  C2 0008		    RET     8

 0000027B			ParseTempsFromString ENDP
Proj6_pereze4.asm(719) : warning A6004:procedure argument or local not referenced : int_Len_Str_CrntTemp



				; ==========================================================================================================================
				; Saves current Temp reading to array
				; receives: Address of the Temperature array
				; returns:
				; preconditions: passed address references of array
				; postconditions: values saved in array
				; registers changed: none
				; ==========================================================================================================================

 0000027B			Save_CrntTemp_ToMatrix PROC
				    LOCAL crntTemp:DWORD
				    LOCAL rowIndex:DWORD
				    LOCAL colIndex:DWORD
				    LOCAL offset_TempMatrixLoc:DWORD
				    LOCAL intWidthMatrix:DWORD
				    LOCAL elementIndex:DWORD
				    LOCAL byteOffset:DWORD
				    LOCAL destAddress:DWORD

 0000027B  55		   *	    push   ebp
 0000027C  8B EC	   *	    mov    ebp, esp
 0000027E  83 C4 E0	   *	    add    esp, 0FFFFFFE0h
 00000281  50			    PUSH    EAX
 00000282  53			    PUSH    EBX
 00000283  51			    PUSH    ECX
 00000284  52			    PUSH    EDX
 00000285  56			    PUSH    ESI
 00000286  57			    PUSH    EDI

				    ;-------------------------------------------------------------------
				    ; PARAMETER HANDLING:
				    ; [EBP+8]  : int_CrntTemp           - the integer value to be saved.
				    ; [EBP+12] : int_RowIndex           - row index in the matrix.
				    ; [EBP+16] : int_ColIndex           - column index in the matrix.
				    ; [EBP+20] : offset_Arr_TempMatrix  - pointer to the temperature matrix.
				    ; [EBP+24] : int_WidthMatrix        - matrix width (number of columns).
				    ;
				    ; Save parameters into local variables.
 00000287  8B 45 08		    MOV     EAX, [EBP+8]
 0000028A  89 45 FC		    MOV     crntTemp, EAX

 0000028D  8B 45 0C		    MOV     EAX, [EBP+12]
 00000290  89 45 F8		    MOV     rowIndex, EAX

 00000293  8B 45 10		    MOV     EAX, [EBP+16]
 00000296  89 45 F4		    MOV     colIndex, EAX

 00000299  8B 45 14		    MOV     EAX, [EBP+20]
 0000029C  89 45 F0		    MOV     offset_TempMatrixLoc, EAX

 0000029F  8B 45 18		    MOV     EAX, [EBP+24]
 000002A2  40			    INC     EAX                                         ; To make space for sentinel value
 000002A3  89 45 EC		    MOV     intWidthMatrix, EAX

				    ;-------------------------------------------------------------------
				    ; DEBUG PRINT: Print parameters.
				    ; (These debug prints can be enabled as needed.)
				    ;MOV     EDX, OFFSET str_MsgCurrentTemp
				    ;CALL    CrLf
				    ;CALL    WriteString
				    ;MOV     EAX, crntTemp
				    ;CALL    WriteInt

				    ;MOV     EDX, OFFSET str_MsgRowIndex
				    ;CALL    CrLf
				    ;CALL    WriteString
				    ;MOV     EAX, rowIndex
				    ;CALL    WriteInt

				    ;MOV     EDX, OFFSET str_MsgColIndex
				    ;CALL    CrLf
				    ;CALL    WriteString
				    ;MOV     EAX, colIndex
				    ;CALL    WriteInt

				    ;MOV     EDX, OFFSET str_MsgMatrixPtr
				    ;CALL    CrLf
				    ;CALL    WriteString
				    ;MOV     EAX, offset_TempMatrixLoc
				    ;CALL    WriteDec

				    ;-------------------------------------------------------------------
				    ; COMPUTE ELEMENT OFFSET:
				    ; elementIndex = rowIndex * intWidthMatrix + colIndex
 000002A6  8B 45 F8		    MOV     EAX, rowIndex
 000002A9  0F AF 45 EC		    IMUL    EAX, intWidthMatrix       ; EAX = rowIndex * intWidthMatrix
 000002AD  03 45 F4		    ADD     EAX, colIndex             ; EAX = element index
 000002B0  89 45 E8		    MOV     elementIndex, EAX

				    ; Compute byteOffset = elementIndex * 4 (DWORD size)
 000002B3  8B 45 E8		    MOV     EAX, elementIndex
 000002B6  C1 E0 02		    SHL     EAX, 2                    ; Multiply by 4.
 000002B9  89 45 E4		    MOV     byteOffset, EAX

				    ; Compute destination address = offset_TempMatrixLoc + byteOffset.
 000002BC  8B 45 F0		    MOV     EAX, offset_TempMatrixLoc
 000002BF  03 45 E4		    ADD     EAX, byteOffset
 000002C2  89 45 E0		    MOV     destAddress, EAX

				    ;-------------------------------------------------------------------
				    ; DEBUG PRINT: Print computed indices and address.
				    ;MOV     EDX, OFFSET str_MsgElementIndex
				    ;CALL    CrLf
				    ;CALL    WriteString
				    ;MOV     EAX, elementIndex
				    ;CALL    WriteInt

				    ;MOV     EDX, OFFSET str_MsgByteOffset
				    ;CALL    CrLf
				    ;CALL    WriteString
				    ;MOV     EAX, byteOffset
				    ;CALL    WriteInt

				    ;MOV     EDX, OFFSET str_MsgDestAddress
				    ;CALL    CrLf
				    ;CALL    WriteString
				    ;MOV     EAX, destAddress
				    ;CALL    WriteDec

				    ;-------------------------------------------------------------------
				    ; SAVE THE INTEGER INTO THE MATRIX:
				    ; Simply move the DWORD value from crntTemp to the computed destination.

 000002C5  8B 7D E0		    MOV     EDI, destAddress  ; Load address into EDI
 000002C8  8B 45 FC		    MOV     EAX, crntTemp     ; Load temperature value
 000002CB  89 07		    MOV     DWORD PTR [EDI], EAX  ; Store the value at the correct address


				    ;-------------------------------------------------------------------
				    ; DEBUG PRINT: Verify saved value by reading from the destination.
				    ;MOV     EDX, OFFSET str_MsgSavedInteger
				    ;CALL    CrLf
				    ;CALL    WriteString
				    ;MOV     EAX, crntTemp
				    ;CALL    WriteInt
				    ;CALL    CrLf



 000002CD  5F			    POP     EDI
 000002CE  5E			    POP     ESI
 000002CF  5A			    POP     EDX
 000002D0  59			    POP     ECX
 000002D1  5B			    POP     EBX
 000002D2  58			    POP     EAX
 000002D3  C9		   *	    leave  
 000002D4  C2 0014		    RET     20
 000002D7			Save_CrntTemp_ToMatrix ENDP



				; ==========================================================================================================================
				; Negates an unsigned Integer
				; receives: Address of the current Temperature reading, an integer
				; returns:
				; preconditions: passed address references of array
				; postconditions: values saved in array
				; registers changed: none
				; ==========================================================================================================================
 000002D7			Negate_CurntTemp PROC
				    LOCAL originalValue:DWORD, negatedValue:DWORD

 000002D7  55		   *	    push   ebp
 000002D8  8B EC	   *	    mov    ebp, esp
 000002DA  83 C4 F8	   *	    add    esp, 0FFFFFFF8h
 000002DD  50			    PUSH    EAX
 000002DE  53			    PUSH    EBX

				    ;------------------------------------------------------------
				    ; PARAMETER HANDLING:
				    ; [EBP+8] : offset_Int_CurntTemp - pointer to the integer value to be negated.
				    ;------------------------------------------------------------
 000002DF  8B 45 08		    MOV     EAX, [EBP+8]                ; EAX = pointer to the integer.
 000002E2  8B 18		    MOV     EBX, [EAX]                  ; Load the original integer value.
 000002E4  89 5D FC		    MOV     originalValue, EBX


				    ;------------------------------------------------------------
				    ; DEBUG PRINT: Print original integer value (optional).
				    ; MOV     EDX, OFFSET str_MsgOriginal  ; "ORIGINAL VALUE: "
				    ; CALL    CrLf
				    ; CALL    WriteString
				    ; MOV     EAX, originalValue
				    ; CALL    WriteInt
				    ; CALL    CrLf

				    ;------------------------------------------------------------
				    ; NEGATE THE INTEGER:
 000002E7  8B 5D FC		    MOV     EBX, originalValue          ; Copy original value to EBX.
 000002EA  F7 DB		    NEG     EBX                         ; EBX = -originalValue.
 000002EC  89 5D F8		    MOV     negatedValue, EBX           ; Store the negated value in local variable.

				    ;------------------------------------------------------------
				    ; STORE THE NEGATED VALUE:
 000002EF  8B 45 08		    MOV     EAX, [EBP + 8]
 000002F2  89 18		    MOV     [EAX], EBX        ; Write negated value back to memory.

				    ;------------------------------------------------------------
				    ; DEBUG PRINT: Print negated integer value (optional).
				    ; MOV     EDX, OFFSET str_MsgNegated   ; "NEGATED VALUE: "
				    ; CALL    CrLf
				    ; CALL    WriteString
				    ; MOV     EAX, negatedValue
				    ; CALL    WriteInt
				    ; CALL    CrLf


 000002F4  5B			    POP     EBX
 000002F5  58			    POP     EAX
 000002F6  C9		   *	    leave  
 000002F7  C2 0004		    RET     4
 000002FA			Negate_CurntTemp ENDP




				; ==========================================================================================================================
				; Converts the current string Temperature reading to Integer
				; receives: Address of the current Temperature reading
				; returns:
				; preconditions: passed address references of array
				; postconditions: values saved in array
				; registers changed: none
				; ==========================================================================================================================
 000002FA			ConvertStringToInteger PROC
				    LOCAL offset_str_CrntTempLoc:DWORD
				    LOCAL len_str_CrntTemp:DWORD
				    LOCAL numInt:DWORD
				    LOCAL loopCount:DWORD

 000002FA  55		   *	    push   ebp
 000002FB  8B EC	   *	    mov    ebp, esp
 000002FD  83 C4 F0	   *	    add    esp, 0FFFFFFF0h
 00000300  50			    PUSH    EAX
 00000301  53			    PUSH    EBX
 00000302  51			    PUSH    ECX
 00000303  52			    PUSH    EDX
 00000304  56			    PUSH    ESI
 00000305  57			    PUSH    EDI

				    ;------------------------------------------------------------
				    ; PARAMETERS:
				    ; [EBP+12] : offset_Int_CurntTemp  - pointer where the converted integer will be stored.
				    ; [EBP+8]  : offset_str_CrntTemp - pointer to the ASCII string, null Terminated
				    ;
				    ; Store the string pointer in a local variable.
 00000306  8B 55 08		    MOV     EDX, [EBP + 8]
 00000309  89 55 FC		    MOV     offset_str_CrntTempLoc, EDX

				    ;------------------------------------------------------------
				    ; GET STRING LENGTH;
 0000030C  8B 75 FC		    MOV     ESI, offset_str_CrntTempLoc
 0000030F  33 C9		    XOR     ECX, ECX         ; Clear ECX (counter = 0).

 00000311			L_strlen:
 00000311  80 3E 00		    CMP     BYTE PTR [ESI], 0 ; Check if the current byte is 0 (null terminator).
 00000314  74 04		    JE      L_done_strlen    ; If yes, jump to done.
 00000316  41			    INC     ECX              ; Otherwise, increment counter.
 00000317  46			    INC     ESI              ; Move pointer to the next character.
 00000318  EB F7		    JMP     L_strlen         ; Loop again.

 0000031A			L_done_strlen:
 0000031A  8B C1		    MOV     EAX, ECX         ; EAX now holds the string length.
				    ; Optionally: display the length.
				    ;CALL    WriteDec
				    ;CALL    CrLf                     ; Returns length in EAX.




 0000031C  89 45 F8		    MOV     len_str_CrntTemp, EAX

				    ;------------------------------------------------------------
				    ; DEBUG PRINT: Print pointer value.
				    ;MOV     EDX, OFFSET STR_MSGPOINTER    ; "POINTER VALUE: "
				    ;CALL    CrLf
				    ;CALL    WriteString
				    ;MOV     EAX, offset_str_CrntTempLoc
				    ;CALL    WriteDec
				    ;CALL    CrLf

				    ; DEBUG PRINT: Print passed string.
				    ;MOV     EDX, OFFSET STR_MSGPASSEDSTRING   ; "PASSED STRING: "
				    ;CALL    CrLf
				    ;CALL    WriteString
				    ;MOV     EDX, offset_str_CrntTempLoc
				    ;CALL    WriteString
				    ;CALL    CrLf

				    ; DEBUG PRINT: Print string length.
				    ;MOV     EDX, OFFSET STR_MSGLENGTH   ; "LENGTH: "
				    ;CALL    WriteString
				    ;MOV     EAX, len_str_CrntTemp
				    ;CALL    WriteDec
				    ;CALL    CrLf

				    ;------------------------------------------------------------
				    ; INITIALIZE THE RESULT INTEGER.
 0000031F  C7 45 F4		    MOV     numInt, 0
	   00000000

				    ;------------------------------------------------------------
				    ; SET UP POINTERS FOR CONVERSION:
				    ; Use ESI to point to the start of the string.
 00000326  8B 75 FC		    MOV     ESI, offset_str_CrntTempLoc
				    ; Use ECX as a counter, set to the length of the string.
 00000329  8B 4D F8		    MOV     ECX, len_str_CrntTemp


				    ;------------------------------------------------------------
				    ; CONVERSION LOOP:
				    ; For each character in the string, if it is between '0' and '9',
				    ; update numInt = 10 * numInt + (char - '0').
 0000032C			    _convert_loop:
 0000032C  AC			        LODSB                       ; Load byte from [ESI] into AL, ESI++, ECX--
 0000032D  3C 00		        CMP     AL, 0
 0000032F  74 1B		        JE      _end_convert_loop    ; If null terminator, end loop.
 00000331  3C 30		        CMP     AL, '0'
 00000333  72 17		        JB      _end_convert_loop    ; If char < '0', break.
 00000335  3C 39		        CMP     AL, '9'
 00000337  77 13		        JA      _end_convert_loop    ; If char > '9', break.
				        ; Convert character to digit.
 00000339  0F B6 C0		        MOVZX   EAX, AL             ; Zero-extend AL into EAX.
 0000033C  83 E8 30		        SUB     EAX, '0'            ; EAX = digit value.
				        ; Multiply current numInt by 10.
 0000033F  8B 5D F4		        MOV     EBX, numInt
 00000342  6B DB 0A		        IMUL    EBX, 10
 00000345  03 D8		        ADD     EBX, EAX            ; Add digit value.
 00000347  89 5D F4		        MOV     numInt, EBX         ; Update numInt.
 0000034A  E2 E0		        LOOP    _convert_loop

				    ; end loop and store the converted integer value
 0000034C			    _end_convert_loop:
				        ;------------------------------------------------------------
				        ; DEBUG PRINT: Print the converted integer.
				        ; MOV     EDX, OFFSET STR_MSGCONVERTED   ; "CONVERTED INTEGER: "
				        ; CALL    CrLf
				        ; CALL    WriteString
				        ; MOV     EAX, numInt
				        ; CALL    WriteDec
				        ; CALL    CrLf

				        ;------------------------------------------------------------
				        ; STORE THE RESULT:
				        ; Save the converted integer at the memory location pointed to by offset_Int_CurntTemp.
 0000034C  8B 5D 0C		        MOV     EBX, [EBP+12]
 0000034F  8B 45 F4		        MOV     EAX, numInt
 00000352  89 03		        MOV     DWORD PTR [EBX], EAX

				    ;------------------------------------------------------------
				    ; RESTORE REGISTERS AND RETURN.
 00000354  5F			    POP     EDI
 00000355  5E			    POP     ESI
 00000356  5A			    POP     EDX
 00000357  59			    POP     ECX
 00000358  5B			    POP     EBX
 00000359  58			    POP     EAX
 0000035A  C9		   *	    leave  
 0000035B  C2 0008		    RET     8
 0000035E			ConvertStringToInteger ENDP
Proj6_pereze4.asm(1069) : warning A6004:procedure argument or local not referenced : loopCount




				; ==========================================================================================================================
				; Detects sign of the current temp reading saved as string. Removes the sign
				; receives: Address of the Temperature reading
				; returns:
				; preconditions: passed address references of array
				; postconditions: values saved in array
				; registers changed: none
				; ==========================================================================================================================

 0000035E			GetSign PROC
 0000035E  55			    PUSH    EBP
 0000035F  8B EC		    MOV     EBP, ESP
 00000361  83 EC 04		    SUB     ESP, 4                ; Allocate 4 bytes for local variable (offset_str_CrntTempLoc)

 00000364  57			    PUSH    EDI
 00000365  56			    PUSH    ESI
 00000366  52			    PUSH    EDX
 00000367  51			    PUSH    ECX
 00000368  53			    PUSH    EBX
 00000369  50			    PUSH    EAX

				    ;------------------------------------------------------------
				    ; Parameter Handling:
				    ; [EBP+8]  : offset_str_CrntTemp - pointer to the string (e.g. "-15",0)
				    ; [EBP+12] : offset_Int_Sign      - pointer to the INT byte.
				    ;
				    ; Load the string pointer into EBX and store it in our local variable.
 0000036A  8B 5D 08		    MOV     EBX, [EBP+8]          ; EBX = pointer to passed string.
 0000036D  89 5D FC		    MOV     DWORD PTR [EBP-4], EBX  ; Store this pointer in local variable.

				    ;------------------------------------------------------------
				    ; Debug Print: Print pointer value.
				    ; MOV     EDX, OFFSET str_MsgPointer  ; "POINTER VALUE: "
				    ; CALL    CrLf
				    ; CALL    WriteString
				    ; MOV     EAX, EBX            ; Use EBX directly.
				    ; CALL    WriteDec
				    ; CALL    CrLf

				    ;------------------------------------------------------------
				    ; Debug Print: Print passed string.
				    ;MOV     EDX, OFFSET str_MsgPassedString  ; "PASSED STRING: "
				    ;CALL    CrLf
				    ;CALL    WriteString
				    ;MOV     EDX, EBX
				    ;CALL    WriteString

				    ;------------------------------------------------------------
				    ; Read the first character from the string.
 00000370  8B 45 FC		    MOV     EAX, [EBP-4]         ; Get stored pointer.
 00000373  8A 00		    MOV     AL, BYTE PTR [EAX]   ; AL = first character.

				    ;------------------------------------------------------------
				    ; Debug Print: Print first character (as char and ASCII code).
				    ;MOV     EDX, OFFSET str_MsgFirstChar   ; "FIRST CHAR: "
				    ;CALL    CrLf
				    ;CALL    WriteString
				    ;CALL    WriteChar          ; Print character in AL.
				    ;CALL    CrLf
				    ;MOVZX   EAX, AL            ; Zero-extend AL.
				    ;MOV     EDX, OFFSET str_MsgASCII   ; " ASCII: "
				    ;CALL    WriteString
				    ;CALL    WriteDec           ; Print ASCII code.
				    ;CALL    CrLf

				    ;------------------------------------------------------------
				    ; Determine sign based solely on the first character.
 00000375  3C 2D		    CMP     AL, '-'            ; If first character is '-'
 00000377  74 17		    JE      setNegative
 00000379  3C 2B		    CMP     AL, '+'            ; If first character is '+'
 0000037B  74 1E		    JE      setPositive
 0000037D  3C 30		    CMP     AL, '0'
 0000037F  72 04		    JB      defaultPositive    ; If not a digit, default positive.
 00000381  3C 39		    CMP     AL, '9'
 00000383  77 00		    JA      defaultPositive    ; If not a digit, default positive.

 00000385			    defaultPositive:
				        ; First character is a digit; treat as positive.
 00000385  8B 5D 0C		        MOV     EBX, [EBP+12]       ; Load pointer to int_Sign byte.
 00000388  C7 03 00000000	        MOV     DWORD PTR [EBX], 0   ; Set int_Sign to 0 (positive).
 0000038E  EB 34		        JMP     printSign

 00000390			    setNegative:
				        ; First character is '-' sign.
 00000390  8B 5D 0C		        MOV     EBX, [EBP+12]       ; Load pointer to int_Sign byte.
 00000393  C7 03 00000001	        MOV     DWORD PTR [EBX], 1   ; Set int_Sign to 1 (negative).
 00000399  EB 0B		        JMP     shiftString

 0000039B			    setPositive:
				        ; First character is '+' sign.
 0000039B  8B 5D 0C		        MOV     EBX, [EBP+12]       ; Load pointer to int_Sign byte.
 0000039E  C7 03 00000000	        MOV     DWORD PTR [EBX], 0   ; Set int_Sign to 0 (positive).
 000003A4  EB 00		        JMP     shiftString

				        ;------------------------------------------------------------
 000003A6			    shiftString:
				        ; Shift the string left by one byte (remove the sign).
				        ; Use the local variable stored at [EBP-4] as the pointer.
 000003A6  8B 45 FC		        MOV     EAX, [EBP-4]        ; EAX = original string pointer.
 000003A9  83 C0 01		        ADD     EAX, 1              ; Point to the second character.
 000003AC  8B F0		        MOV     ESI, EAX            ; Source pointer = string + 1.
 000003AE  8B 45 FC		        MOV     EAX, [EBP-4]        ; Get original pointer again.
 000003B1  8B F8		        MOV     EDI, EAX            ; Destination pointer = original string pointer.
 000003B3  FC			        CLD                         ; Clear direction flag.
 000003B4			    shift_loop:
 000003B4  AC			        LODSB                       ; Load byte from source (ESI) into AL; increments ESI.
 000003B5  AA			        STOSB                       ; Store byte in AL into destination (EDI); increments EDI.
 000003B6  3C 00		        CMP     AL, 0               ; Check for null terminator.
 000003B8  75 FA		        JNE     shift_loop
				        ; Debug Print: Print shifted string.
 000003BA  BA 00000D53 R	        MOV     EDX, OFFSET str_MsgShiftedString  ; "SHIFTED STRING: "
				        ;CALL    CrLf
				        ;CALL    WriteString
 000003BF  8B 55 FC		        MOV     EDX, [EBP-4]        ; Local variable still holds original pointer.
				        ;CALL    WriteString
 000003C2  EB 00		        JMP     printSign

				        ;------------------------------------------------------------
 000003C4			    printSign:
				        ; Debug Print: Print the obtained int_Sign value.
				        ;MOV     EDX, OFFSET str_MsgIntSign  ; "INT SIGN: "
				        ;CALL    CrLf
				        ;CALL    WriteString
				        ;MOV     EAX, [EBP+12]       ; Load pointer to int_Sign byte.
				        ;MOVZX   EAX, BYTE PTR [EAX] ; Get the sign value.
				        ;CALL    WriteDec            ; Print the sign value.
				        ;CALL    CrLf

				        ;------------------------------------------------------------
 000003C4			    done:
 000003C4  58			        POP     EAX
 000003C5  5B			        POP     EBX
 000003C6  59			        POP     ECX
 000003C7  5A			        POP     EDX
 000003C8  5E			        POP     ESI
 000003C9  5F			        POP     EDI
 000003CA  8B E5		        MOV     ESP, EBP
 000003CC  5D			        POP     EBP
 000003CD  C2 0008		        RET     8
 000003D0			GetSign ENDP



				; ==========================================================================================================================
				; Extracts a temperature reading, in string delimited format, from memory. 
				; receives: Address of the Temperature array
				; returns:
				; preconditions: passed address references of array
				; postconditions: values saved in array
				; registers changed: none
				; ==========================================================================================================================
 000003D0			Extract_StrCrntTemp PROC
				    ;-------------------------------------------------------------------
				    ; Local Variables:
				    ;   prev_DlmterPos      - stores the parameter int_Prev_DlmterPos (previous delimiter index)
				    ;   crnt_DlmterPos      - stores the parameter int_CrntDlmterPos (current delimiter index)
				    ;   file_TempReadingsLoc- stores the parameter offset_File_TempReadings (file buffer base address)
				    ;   startPos            - computed starting index for extraction (prev_DlmterPos + 1)
				    ;   stringLength        - length of the substring to extract (crnt_DlmterPos - startPos)
				    LOCAL prev_DlmterPos:DWORD
				    LOCAL crnt_DlmterPos:DWORD
				    LOCAL file_TempReadingsLoc:DWORD
				    LOCAL startPos:DWORD
				    LOCAL stringLength:DWORD

 000003D0  55		   *	    push   ebp
 000003D1  8B EC	   *	    mov    ebp, esp
 000003D3  83 C4 EC	   *	    add    esp, 0FFFFFFECh
 000003D6  50			    PUSH    EAX
 000003D7  53			    PUSH    EBX
 000003D8  51			    PUSH    ECX
 000003D9  52			    PUSH    EDX
 000003DA  56			    PUSH    ESI
 000003DB  57			    PUSH    EDI

				    ;-------------------------------------------------------------------
				    ; Parameter Handling:
				    ; Parameters (from caller):
				    ;   [EBP+8]  : int_CrntDlmterPos   - current delimiter index.
				    ;   [EBP+12] : int_Prev_DlmterPos    - previous delimiter index.
				    ;   [EBP+16] : offset_str_CrntTemp  - destination address for the extracted string.
				    ;   [EBP+20] : offset_File_TempReadings - file buffer address.
				    ;
				    ; Load parameters into local variables with the updated order.
 000003DC  8B 45 0C		    MOV     EAX, [EBP+12]
 000003DF  89 45 FC		    MOV     prev_DlmterPos, EAX          ; Save previous delimiter position.
 000003E2  8B 45 08		    MOV     EAX, [EBP+8]
 000003E5  89 45 F8		    MOV     crnt_DlmterPos, EAX          ; Save current delimiter position.
 000003E8  8B 45 14		    MOV     EAX, [EBP+20]
 000003EB  89 45 F4		    MOV     file_TempReadingsLoc, EAX   ; Save file buffer base address.


				    ; Debugging Messages
				    ;MOV     EDX, OFFSET str_MsgLoadedFile
				    ;CALL    CrLf
				    ;CALL    WriteString
				    ;MOV     EDX, file_TempReadingsLoc
				    ;CALL    CrLf
				    ;CALL    WriteString


				    ;MOV     EDX, OFFSET str_MsgPrevDlmtrPos
				    ;CALL    CrLf
				    ;CALL    WriteString
				    ;MOV     EAX, prev_DlmterPos
				    ;CALL    WriteInt

				    ;MOV     EDX, OFFSET str_MsgCrntDlmtrPos
				    ;CALL    CrLf
				    ;CALL    WriteString
				    ;MOV     EAX, crnt_DlmterPos
				    ;CALL    WriteInt


				    ;-------------------------------------------------------------------
				    ; Compute the Starting Position for Extraction:
				    ; startPos = prev_DlmterPos + 1  (skip the previous delimiter)
 000003EE  8B 45 FC		    MOV     EAX, prev_DlmterPos
 000003F1  83 C0 01		    ADD     EAX, 1                     ; Advance one position past previous delimiter.
 000003F4  89 45 F0		    MOV     startPos, EAX              ; Save computed starting index.

				    ;-------------------------------------------------------------------
				    ; Compute the Length of the Substring to Extract:
				    ; stringLength = crnt_DlmterPos - startPos
 000003F7  8B 45 F8		    MOV     EAX, crnt_DlmterPos
 000003FA  2B 45 F0		    SUB     EAX, startPos              ; Compute number of characters to copy.
 000003FD  89 45 EC		    MOV     stringLength, EAX          ; Save the computed string length.

				    ;-------------------------------------------------------------------
				    ; Debug Prints (Optional):
				    ; Display file buffer base address, start position, and string length.
				    ;MOV     EAX, file_TempReadingsLoc
				    ;CALL    CrLf
				    ;CALL    WriteDec
				    ;CALL    CrLf

				    ;MOV     EAX, startPos
				    ;CALL    WriteDec
				    ;CALL    CrLf

				    ;MOV     EAX, stringLength
				    ;CALL    WriteDec
				    ;CALL    CrLf


				    ;-------------------------------------------------------------------
				    ; Set Up Source and Destination Pointers for Copy:
				    ; Source pointer = file_TempReadingsLoc + startPos
 00000400  8B 45 F4		    MOV     EAX, file_TempReadingsLoc
 00000403  03 45 F0		    ADD     EAX, startPos              ; Compute effective source address.
 00000406  8B F0		    MOV     ESI, EAX                   ; ESI now points to the substring in the file buffer.
				    ;
				    ; Destination pointer = offset_str_CrntTemp (passed as parameter at [EBP+16])
 00000408  8B 45 10		    MOV     EAX, [EBP+16]
 0000040B  8B F8		    MOV     EDI, EAX                   ; EDI points to the destination buffer.

				    ;-------------------------------------------------------------------
				    ; Copy the Substring Using REP MOVSB:
				    ; Clear the Direction Flag to ensure auto-increment.
 0000040D  FC			    CLD
				    ; Set ECX = stringLength (number of bytes to copy).
 0000040E  8B 4D EC		    MOV     ECX, stringLength
 00000411  F3/ A4		    REP     MOVSB                    ; Copy ECX bytes from DS:ESI to ES:EDI.

				    ;SkipCopy:
				        ;-------------------------------------------------------------------
				        ; Append the NULL Terminator:
 00000413  B0 00		        MOV     AL, 0                     ; Prepare NULL in AL.
 00000415  AA			        STOSB                             ; Store AL at destination and increment EDI.

				        ; Debugging messages
				        ;MOV     EDX, [EBP+16]
				        ;CALL    CrLF
				        ;CALL    CrLf
				        ;CALL    WriteString

				    ;-------------------------------------------------------------------
				    ; Restore Registers and Return:
 00000416  5F			    POP     EDI
 00000417  5E			    POP     ESI
 00000418  5A			    POP     EDX
 00000419  59			    POP     ECX
 0000041A  5B			    POP     EBX
 0000041B  58			    POP     EAX
 0000041C  C9		   *	    leave  
 0000041D  C2 0010		    RET     16                        ; Clean up 20 bytes (4 parameters) from the stack.
 00000420			Extract_StrCrntTemp ENDP




				; ==========================================================================================================================
				; Searches for the next delimiter in the file buffer
				; receives: Address of the buffered file, offset of the matrix Length and Width placeholder
				; returns:
				; preconditions: passed address offsets
				; postconditions: values saved in memory
				; registers changed: none
				; ==========================================================================================================================
 00000420			Get_NextDlmtrPos PROC
				    LOCAL crntDlmtrPos:DWORD
				    LOCAL prevDlmterPos:DWORD
				    LOCAL offset_File_TempReadingsLoc:DWORD

 00000420  55		   *	    push   ebp
 00000421  8B EC	   *	    mov    ebp, esp
 00000423  83 C4 F4	   *	    add    esp, 0FFFFFFF4h
 00000426  50			    PUSH    EAX
 00000427  53			    PUSH    EBX
 00000428  51			    PUSH    ECX
 00000429  52			    PUSH    EDX
 0000042A  56			    PUSH    ESI
 0000042B  57			    PUSH    EDI

				    ; Parameters:
				    ;   [EBP+8]  : int_PrevDlmterPos
				    ;              (DWORD) The index of the previous delimiter in the current row.
				    ;   [EBP+12] : offset_Int_CrntDlmtrPos
				    ;              (DWORD) The address in memory where the result (the current delimiter index) will be saved.
				    ;   [EBP+16] : offset_File_TempReadings
				    ;              (DWORD) The address of the file saved in memory buffer (Temperature readings).

				    ; Store passed parameters in local variables.
 0000042C  8B 45 08		    MOV     EAX, [EBP+8]  
 0000042F  89 45 F8		    MOV     prevDlmterPos, EAX                ; Save previous delimiter position.

				    ; Debugging messages
				    ;MOV     EDX, OFFSET str_MsgPrevDlmtrPos
				    ;CALL    CrLf
				    ;CALL    WriteString
				    ;MOV     EAX, prevDlmterPos
				    ;CALL    WriteInt

 00000432  8B 45 10		    MOV     EAX, [EBP+16]
 00000435  89 45 F4		    MOV     offset_File_TempReadingsLoc, EAX  ; Save file buffer base address.


				    ; Debugging messages
				    ;MOV     EDX, OFFSET str_MsgLoadedFile
				    ;CALL    CrLF
				    ;CALL    WriteString
				    ;MOV     EDX, offset_File_TempReadingsLoc
				    ;CALL    CrLF
				    ;CALL    WriteString

				    ; Compute starting address for search:
				    ; Start searching at (prevDlmterPos + 1) relative to the file buffer.
 00000438  8B 45 F8		    MOV     EAX, prevDlmterPos
 0000043B  83 C0 01		    ADD     EAX, 1                                      ; Next search index.
 0000043E  8B 5D F4		    MOV     EBX, offset_File_TempReadingsLoc            ; Load base address.
 00000441  03 D8		    ADD     EBX, EAX                                    ; EBX now points to the search start position.
 00000443  8B F3		    MOV     ESI, EBX                                    ; Set ESI to the starting search pointer.

				    ; Search for next delimiter value in the file
 00000445			    _searchLoop2:
 00000445  AC			        LODSB                                           ; Load byte at [ESI] into AL; ESI increments automatically.
 00000446  3C 2C		        CMP     AL, DELIMITER                           ; Compare byte with the delimiter
 00000448  74 02		        JE      _found_Dlmtr
 0000044A  EB F9		        JMP     _searchLoop2                            ; Continue scanning

				    ; Jump here once the next delimiter is found
 0000044C			    _found_Dlmtr:
				        ; ESI now points one byte past the found delimiter.
 0000044C  8B C6		        MOV     EAX, ESI
 0000044E  48			        DEC     EAX                                     ; Adjust: EAX now points to the delimiter itself.
 0000044F  89 45 FC		        MOV     crntDlmtrPos, EAX                       ; Store current delimiter absolute position.

				        ; Calculate the delimiter's index relative to the file buffer.
 00000452  8B 4D F4		        MOV     ECX, offset_File_TempReadingsLoc        ; Base address.
 00000455  29 4D FC		        SUB     crntDlmtrPos, ECX                       ; crntDlmtrPos now holds the index.


				        ; Check for CRLF between previous delimiter and current delimiter.
				        ; Scan from (prevDlmterPos + 1) up to the found delimiter index.
 00000458  8B 45 F8		        MOV     EAX, prevDlmterPos
 0000045B  83 C0 01		        ADD     EAX, 1                                  ; Starting index for scan.
 0000045E  8B 5D FC		        MOV     EBX, crntDlmtrPos                       ; EBX holds current delimiter index.
 00000461  8B F8		        MOV     EDI, EAX                                ; EDI is our scanning index.

 00000463			    _adjustLoop:
 00000463  3B FB		        CMP     EDI, EBX
 00000465  7D 19		        JGE     _doneAdjust                             ; If scanning index >= current delimiter index, finish.
 00000467  8A 44 3D F4		        MOV     AL, BYTE PTR [offset_File_TempReadingsLoc + EDI]
 0000046B  3C 0D		        CMP     AL, 0Dh
 0000046D  74 03		        JE      _checkLF
 0000046F  47			        INC     EDI
 00000470  EB F1		        JMP     _adjustLoop

 00000472			    _checkLF:
 00000472  80 7C 3D F5 0A	        CMP     BYTE PTR [offset_File_TempReadingsLoc + EDI + 1], 0Ah
 00000477  74 03		        JE      _foundCRLF
 00000479  47			        INC     EDI
 0000047A  EB E7		        JMP     _adjustLoop

 0000047C			    _foundCRLF:
 0000047C  83 45 FC 02		        ADD     crntDlmtrPos, 2            ; Adjust current delimiter index by adding 2.


 00000480			    _doneAdjust:
				        ; Save the result in the memory location pointed to by offset_Int_CrntDlmtrPos.
 00000480  8B 45 FC		        MOV     EAX, crntDlmtrPos
 00000483  8B 55 0C		        MOV     EDX, [EBP+12]
 00000486  89 02		        MOV     [EDX], EAX

				        ; Debug printouts:
				        ;MOV     EDX, OFFSET str_MsgCrntDlmtrPos
				        ;CALL    CrLf
				        ;CALL    WriteString
				        ;CALL    WriteDec


 00000488  5F			        POP     EDI
 00000489  5E			        POP     ESI
 0000048A  5A			        POP     EDX
 0000048B  59			        POP     ECX
 0000048C  5B			        POP     EBX
 0000048D  58			        POP     EAX
 0000048E  C9		   *	    leave  
 0000048F  C2 000C		        RET     12
 00000492			Get_NextDlmtrPos ENDP




				; ==========================================================================================================================
				; Gathers the Length and Width og the matrix
				; receives: Address of the buffered file, offset of the matrix Length and Width placeholder
				; returns:
				; preconditions: passed address offsets
				; postconditions: values saved in memory
				; registers changed: none
				; ==========================================================================================================================
 00000492			Get_MatrixSize PROC

				    LOCAL int_NumRows:DWORD
				    LOCAL int_NumCols:DWORD
				    LOCAL offset_File_TempReadings:DWORD
				    LOCAL rowHasData:BYTE

 00000492  55		   *	    push   ebp
 00000493  8B EC	   *	    mov    ebp, esp
 00000495  83 C4 F0	   *	    add    esp, 0FFFFFFF0h
 00000498  50			    PUSH    EAX
 00000499  53			    PUSH    EBX
 0000049A  51			    PUSH    ECX
 0000049B  52			    PUSH    EDX
 0000049C  56			    PUSH    ESI
 0000049D  57			    PUSH    EDI


				    ; Parameters
				    ; [EBP + 16] int_WidthMatrix
				    ; [EBP + 12] int_LenMatrix
				    ; [EBP + 8]  offset_File_TempReadings

				    ; Load file address into ESI
 0000049E  8B 45 08		    MOV     EAX, [EBP + 8]
 000004A1  89 45 F4		    MOV     offset_File_TempReadings, EAX
 000004A4  8B 75 F4		    MOV     ESI, offset_File_TempReadings       ; Had to abandon use of local variable, use ESI instead to make use of LODSB

				    ; Initialize counters and flag
 000004A7  C7 45 FC		    MOV     int_NumRows, 0
	   00000000
 000004AE  C7 45 F8		    MOV     int_NumCols, 0                      ; Column count is based on delimiters (+ 1 if non-empty)
	   00000000
 000004B5  C6 45 F3 00		    MOV     rowHasData, 0

				    ; ----------------------------------------------------------------
				    ; Process the first row: count columns and check for non-empty line
 000004B9			    _countCols:
 000004B9  AC			        LODSB                                   ; Load next byte from [ESI] into AL and increment ESI
 000004BA  8A D8		        MOV     BL, AL                          ; Save the character in BL

 000004BC  80 FB 00		        CMP     BL, 0                           ; End-of-file?
 000004BF  74 49		        JE      _end_Get_MatrixSize

 000004C1  80 FB 0D		        CMP     BL, 0Dh                          ; Skip CR (Carriage Return)
 000004C4  74 F3		        JE      _countCols

 000004C6  80 FB 0A		        CMP     BL, 0Ah                     ; LF indicates end-of-line
 000004C9  74 10		        JE      _finishFirstRow

				        ; Non CR/LF character: mark the row as non-empty
 000004CB  C6 45 F3 01		        MOV     rowHasData, 1

 000004CF  80 FB 2C		        CMP     BL, DELIMITER                     ; Check for delimiter
 000004D2  75 03		        JNE     _continueCols
 000004D4  FF 45 F8		        INC     int_NumCols

				    ; Jump here if encountered delimiter
 000004D7			    _continueCols:
 000004D7  8A C3		        MOV     AL, BL
 000004D9  EB DE		        JMP     _countCols

				    ; At the end of the first row, count it if it contains data.
 000004DB			    _finishFirstRow:

 000004DB  80 7D F3 01		    CMP     rowHasData, 1
 000004DF  75 03		    JNE     _skipFirstRow
 000004E1  FF 45 FC		    INC     int_NumRows

				    ; Assume file has at least one row
 000004E4			    _skipFirstRow:
 000004E4  C6 45 F3 00		        MOV     rowHasData, 0               ; Reset flag for next row


				    ; Process subsequent rows
 000004E8			    _countRows:
 000004E8  AC			        LODSB                               ; Load next byte
 000004E9  3C 00		        CMP     AL, 0                       ; End-of-file?
 000004EB  74 1D		        JE      _end_Get_MatrixSize
 000004ED  3C 0D		        CMP     AL, 0Dh                     ; Skip CR (Carriage Return)
 000004EF  74 F7		        JE      _countRows
 000004F1  3C 0A		        CMP     AL, 0Ah                     ; LF indicates end-of-line
 000004F3  74 06		        JE      _endOfRow
				        ; Non CR/LF character: mark the row as non-empty
 000004F5  C6 45 F3 01		        MOV     rowHasData, 1
 000004F9  EB ED		        JMP     _countRows

				    ; At the end of a row, count it if it contains data.
 000004FB			    _endOfRow:
 000004FB  80 7D F3 01		    CMP     rowHasData, 1
 000004FF  75 03		    JNE     _resetRow
 00000501  FF 45 FC		    INC     int_NumRows

				    ; Reset flag for the next row
 00000504			    _resetRow:
 00000504  C6 45 F3 00		        MOV     rowHasData, 0       
 00000508  EB DE		        JMP     _countRows

				     
				    ; check if final row has data
 0000050A			    _end_Get_MatrixSize:
 0000050A  80 7D F3 01		    CMP     rowHasData, 1
 0000050E  74 02		    JE      _addFinalRow
 00000510  EB 05		    JMP    _storeCounts 


				    ; Jump here if final Row has data to count it
 00000512			    _addFinalRow:
 00000512  FF 45 FC		        INC     int_NumRows
 00000515  EB 00		        JMP     _storeCounts

				    ; Store the row and column counts in the provided output addresses.
 00000517			    _storeCounts:

 00000517  8B 45 FC		    MOV     EAX, int_NumRows
 0000051A  8B 7D 0C		    MOV     EDI, [EBP + 12]
 0000051D  89 07		    MOV     DWORD PTR [EDI], EAX

 0000051F  8B 45 F8		    MOV     EAX, int_NumCols
 00000522  8B 7D 10		    MOV     EDI, [EBP + 16]
 00000525  89 07		    MOV     DWORD PTR [EDI], EAX

 00000527  5F			    POP     EDI
 00000528  5E			    POP     ESI
 00000529  5A			    POP     EDX
 0000052A  59			    POP     ECX
 0000052B  5B			    POP     EBX
 0000052C  58			    POP     EAX
 0000052D  C9		   *	    leave  
 0000052E  C2 000C		    RET     12

 00000531			Get_MatrixSize ENDP

				; ==========================================================================================================================
				; Init Temp Matrix
				; receives: Address of the Temperature array
				; returns:
				; preconditions: passed address references of array
				; postconditions: values saved in array
				; registers changed: none
				; ==========================================================================================================================




				END main
Microsoft (R) Macro Assembler Version 14.29.30158.0	    03/16/25 04:53:12
*Temp List Reverser     (Proj6_pereze4.asm		     Symbols 2 - 1




Macros:

                N a m e                 Type

mDisplayChar . . . . . . . . . .	Proc
mDisplayString . . . . . . . . .	Proc
mGetString . . . . . . . . . . .	Proc


Structures and Unions:

                N a m e                  Size
                                         Offset      Type

CONSOLE_CURSOR_INFO  . . . . . .	 00000008
  dwSize . . . . . . . . . . . .	 00000000	 DWord
  bVisible . . . . . . . . . . .	 00000004	 DWord
CONSOLE_SCREEN_BUFFER_INFO . . .	 00000016
  dwSize . . . . . . . . . . . .	 00000000	 DWord
  dwCursorPosition . . . . . . .	 00000004	 DWord
  wAttributes  . . . . . . . . .	 00000008	 Word
  srWindow . . . . . . . . . . .	 0000000A	 QWord
  dwMaximumWindowSize  . . . . .	 00000012	 DWord
COORD  . . . . . . . . . . . . .	 00000004
  X  . . . . . . . . . . . . . .	 00000000	 Word
  Y  . . . . . . . . . . . . . .	 00000002	 Word
FILETIME . . . . . . . . . . . .	 00000008
  loDateTime . . . . . . . . . .	 00000000	 DWord
  hiDateTime . . . . . . . . . .	 00000004	 DWord
FOCUS_EVENT_RECORD . . . . . . .	 00000004
  bSetFocus  . . . . . . . . . .	 00000000	 DWord
FPU_ENVIRON  . . . . . . . . . .	 0000001C
  controlWord  . . . . . . . . .	 00000000	 Word
  statusWord . . . . . . . . . .	 00000004	 Word
  tagWord  . . . . . . . . . . .	 00000008	 Word
  instrPointerOffset . . . . . .	 0000000C	 DWord
  instrPointerSelector . . . . .	 00000010	 DWord
  operandPointerOffset . . . . .	 00000014	 DWord
  operandPointerSelector . . . .	 00000018	 Word
INPUT_RECORD . . . . . . . . . .	 00000014
  EventType  . . . . . . . . . .	 00000000	 Word
  Event  . . . . . . . . . . . .	 00000004	 XmmWord
  bKeyDown . . . . . . . . . . .	 00000000	 DWord
  wRepeatCount . . . . . . . . .	 00000004	 Word
  wVirtualKeyCode  . . . . . . .	 00000006	 Word
  wVirtualScanCode . . . . . . .	 00000008	 Word
  uChar  . . . . . . . . . . . .	 0000000A	 Word
  UnicodeChar  . . . . . . . . .	 00000000	 Word
  AsciiChar  . . . . . . . . . .	 00000000	 Byte
  dwControlKeyState  . . . . . .	 0000000C	 DWord
  dwMousePosition  . . . . . . .	 00000000	 DWord
  dwButtonState  . . . . . . . .	 00000004	 DWord
  dwMouseControlKeyState . . . .	 00000008	 DWord
  dwEventFlags . . . . . . . . .	 0000000C	 DWord
  dwSize . . . . . . . . . . . .	 00000000	 DWord
  dwCommandId  . . . . . . . . .	 00000000	 DWord
  bSetFocus  . . . . . . . . . .	 00000000	 DWord
KEY_EVENT_RECORD . . . . . . . .	 00000010
  bKeyDown . . . . . . . . . . .	 00000000	 DWord
  wRepeatCount . . . . . . . . .	 00000004	 Word
  wVirtualKeyCode  . . . . . . .	 00000006	 Word
  wVirtualScanCode . . . . . . .	 00000008	 Word
  uChar  . . . . . . . . . . . .	 0000000A	 Word
  UnicodeChar  . . . . . . . . .	 00000000	 Word
  AsciiChar  . . . . . . . . . .	 00000000	 Byte
  dwControlKeyState  . . . . . .	 0000000C	 DWord
MENU_EVENT_RECORD  . . . . . . .	 00000004
  dwCommandId  . . . . . . . . .	 00000000	 DWord
MOUSE_EVENT_RECORD . . . . . . .	 00000010
  dwMousePosition  . . . . . . .	 00000000	 DWord
  dwButtonState  . . . . . . . .	 00000004	 DWord
  dwMouseControlKeyState . . . .	 00000008	 DWord
  dwEventFlags . . . . . . . . .	 0000000C	 DWord
SMALL_RECT . . . . . . . . . . .	 00000008
  Left . . . . . . . . . . . . .	 00000000	 Word
  Top  . . . . . . . . . . . . .	 00000002	 Word
  Right  . . . . . . . . . . . .	 00000004	 Word
  Bottom . . . . . . . . . . . .	 00000006	 Word
SYSTEMTIME . . . . . . . . . . .	 00000010
  wYear  . . . . . . . . . . . .	 00000000	 Word
  wMonth . . . . . . . . . . . .	 00000002	 Word
  wDayOfWeek . . . . . . . . . .	 00000004	 Word
  wDay . . . . . . . . . . . . .	 00000006	 Word
  wHour  . . . . . . . . . . . .	 00000008	 Word
  wMinute  . . . . . . . . . . .	 0000000A	 Word
  wSecond  . . . . . . . . . . .	 0000000C	 Word
  wMilliseconds  . . . . . . . .	 0000000E	 Word
WINDOW_BUFFER_SIZE_RECORD  . . .	 00000004
  dwSize . . . . . . . . . . . .	 00000000	 DWord


Segments and Groups:

                N a m e                 Size     Length   Align   Combine Class

FLAT . . . . . . . . . . . . . .	GROUP
STACK  . . . . . . . . . . . . .	32 Bit	 00001000 Para	  Stack	  'STACK'	 
_DATA  . . . . . . . . . . . . .	32 Bit	 00000E17 Para	  Public  'DATA'	
_TEXT  . . . . . . . . . . . . .	32 Bit	 00000531 Para	  Public  'CODE'	


Procedures, parameters, and locals:

                N a m e                 Type     Value    Attr

CloseFile  . . . . . . . . . . .	P Near	 00000000 FLAT	Length= 00000000 External STDCALL
CloseHandle  . . . . . . . . . .	P Near	 00000000 FLAT	Length= 00000000 External STDCALL
Clrscr . . . . . . . . . . . . .	P Near	 00000000 FLAT	Length= 00000000 External STDCALL
ConvertStringToInteger . . . . .	P Near	 000002FA _TEXT	Length= 00000064 Public STDCALL
  offset_str_CrntTempLoc . . . .	DWord	 bp - 00000004
  len_str_CrntTemp . . . . . . .	DWord	 bp - 00000008
  numInt . . . . . . . . . . . .	DWord	 bp - 0000000C
  loopCount  . . . . . . . . . .	DWord	 bp - 00000010
  L_strlen . . . . . . . . . . .	L Near	 00000311 _TEXT	
  L_done_strlen  . . . . . . . .	L Near	 0000031A _TEXT	
  _convert_loop  . . . . . . . .	L Near	 0000032C _TEXT	
  _end_convert_loop  . . . . . .	L Near	 0000034C _TEXT	
CreateFileA  . . . . . . . . . .	P Near	 00000000 FLAT	Length= 00000000 External STDCALL
CreateOutputFile . . . . . . . .	P Near	 00000000 FLAT	Length= 00000000 External STDCALL
Crlf . . . . . . . . . . . . . .	P Near	 00000000 FLAT	Length= 00000000 External STDCALL
Delay  . . . . . . . . . . . . .	P Near	 00000000 FLAT	Length= 00000000 External STDCALL
DumpMem  . . . . . . . . . . . .	P Near	 00000000 FLAT	Length= 00000000 External STDCALL
DumpRegs . . . . . . . . . . . .	P Near	 00000000 FLAT	Length= 00000000 External STDCALL
ExitProcess  . . . . . . . . . .	P Near	 00000000 FLAT	Length= 00000000 External STDCALL
Extract_StrCrntTemp  . . . . . .	P Near	 000003D0 _TEXT	Length= 00000050 Public STDCALL
  prev_DlmterPos . . . . . . . .	DWord	 bp - 00000004
  crnt_DlmterPos . . . . . . . .	DWord	 bp - 00000008
  file_TempReadingsLoc . . . . .	DWord	 bp - 0000000C
  startPos . . . . . . . . . . .	DWord	 bp - 00000010
  stringLength . . . . . . . . .	DWord	 bp - 00000014
FileTimeToDosDateTime  . . . . .	P Near	 00000000 FLAT	Length= 00000000 External STDCALL
FileTimeToSystemTime . . . . . .	P Near	 00000000 FLAT	Length= 00000000 External STDCALL
FlushConsoleInputBuffer  . . . .	P Near	 00000000 FLAT	Length= 00000000 External STDCALL
FormatMessageA . . . . . . . . .	P Near	 00000000 FLAT	Length= 00000000 External STDCALL
GetCommandLineA  . . . . . . . .	P Near	 00000000 FLAT	Length= 00000000 External STDCALL
GetCommandTail . . . . . . . . .	P Near	 00000000 FLAT	Length= 00000000 External STDCALL
GetConsoleCP . . . . . . . . . .	P Near	 00000000 FLAT	Length= 00000000 External STDCALL
GetConsoleCursorInfo . . . . . .	P Near	 00000000 FLAT	Length= 00000000 External STDCALL
GetConsoleMode . . . . . . . . .	P Near	 00000000 FLAT	Length= 00000000 External STDCALL
GetConsoleScreenBufferInfo . . .	P Near	 00000000 FLAT	Length= 00000000 External STDCALL
GetDateTime  . . . . . . . . . .	P Near	 00000000 FLAT	Length= 00000000 External STDCALL
GetFileTime  . . . . . . . . . .	P Near	 00000000 FLAT	Length= 00000000 External STDCALL
GetKeyState  . . . . . . . . . .	P Near	 00000000 FLAT	Length= 00000000 External STDCALL
GetLastError . . . . . . . . . .	P Near	 00000000 FLAT	Length= 00000000 External STDCALL
GetLocalTime . . . . . . . . . .	P Near	 00000000 FLAT	Length= 00000000 External STDCALL
GetMaxXY . . . . . . . . . . . .	P Near	 00000000 FLAT	Length= 00000000 External STDCALL
GetMseconds  . . . . . . . . . .	P Near	 00000000 FLAT	Length= 00000000 External STDCALL
GetNumberOfConsoleInputEvents  .	P Near	 00000000 FLAT	Length= 00000000 External STDCALL
GetProcessHeap . . . . . . . . .	P Near	 00000000 FLAT	Length= 00000000 External STDCALL
GetSign  . . . . . . . . . . . .	P Near	 0000035E _TEXT	Length= 00000072 Public STDCALL
  defaultPositive  . . . . . . .	L Near	 00000385 _TEXT	
  setNegative  . . . . . . . . .	L Near	 00000390 _TEXT	
  setPositive  . . . . . . . . .	L Near	 0000039B _TEXT	
  shiftString  . . . . . . . . .	L Near	 000003A6 _TEXT	
  shift_loop . . . . . . . . . .	L Near	 000003B4 _TEXT	
  printSign  . . . . . . . . . .	L Near	 000003C4 _TEXT	
  done . . . . . . . . . . . . .	L Near	 000003C4 _TEXT	
GetStdHandle . . . . . . . . . .	P Near	 00000000 FLAT	Length= 00000000 External STDCALL
GetSystemTime  . . . . . . . . .	P Near	 00000000 FLAT	Length= 00000000 External STDCALL
GetTextColor . . . . . . . . . .	P Near	 00000000 FLAT	Length= 00000000 External STDCALL
GetTickCount . . . . . . . . . .	P Near	 00000000 FLAT	Length= 00000000 External STDCALL
Get_MatrixSize . . . . . . . . .	P Near	 00000492 _TEXT	Length= 0000009F Public STDCALL
  int_NumRows  . . . . . . . . .	DWord	 bp - 00000004
  int_NumCols  . . . . . . . . .	DWord	 bp - 00000008
  offset_File_TempReadings . . .	DWord	 bp - 0000000C
  rowHasData . . . . . . . . . .	Byte	 bp - 0000000D
  _countCols . . . . . . . . . .	L Near	 000004B9 _TEXT	
  _continueCols  . . . . . . . .	L Near	 000004D7 _TEXT	
  _finishFirstRow  . . . . . . .	L Near	 000004DB _TEXT	
  _skipFirstRow  . . . . . . . .	L Near	 000004E4 _TEXT	
  _countRows . . . . . . . . . .	L Near	 000004E8 _TEXT	
  _endOfRow  . . . . . . . . . .	L Near	 000004FB _TEXT	
  _resetRow  . . . . . . . . . .	L Near	 00000504 _TEXT	
  _end_Get_MatrixSize  . . . . .	L Near	 0000050A _TEXT	
  _addFinalRow . . . . . . . . .	L Near	 00000512 _TEXT	
  _storeCounts . . . . . . . . .	L Near	 00000517 _TEXT	
Get_NextDlmtrPos . . . . . . . .	P Near	 00000420 _TEXT	Length= 00000072 Public STDCALL
  crntDlmtrPos . . . . . . . . .	DWord	 bp - 00000004
  prevDlmterPos  . . . . . . . .	DWord	 bp - 00000008
  offset_File_TempReadingsLoc  .	DWord	 bp - 0000000C
  _searchLoop2 . . . . . . . . .	L Near	 00000445 _TEXT	
  _found_Dlmtr . . . . . . . . .	L Near	 0000044C _TEXT	
  _adjustLoop  . . . . . . . . .	L Near	 00000463 _TEXT	
  _checkLF . . . . . . . . . . .	L Near	 00000472 _TEXT	
  _foundCRLF . . . . . . . . . .	L Near	 0000047C _TEXT	
  _doneAdjust  . . . . . . . . .	L Near	 00000480 _TEXT	
Gotoxy . . . . . . . . . . . . .	P Near	 00000000 FLAT	Length= 00000000 External STDCALL
HeapAlloc  . . . . . . . . . . .	P Near	 00000000 FLAT	Length= 00000000 External STDCALL
HeapCreate . . . . . . . . . . .	P Near	 00000000 FLAT	Length= 00000000 External STDCALL
HeapDestroy  . . . . . . . . . .	P Near	 00000000 FLAT	Length= 00000000 External STDCALL
HeapFree . . . . . . . . . . . .	P Near	 00000000 FLAT	Length= 00000000 External STDCALL
HeapSize . . . . . . . . . . . .	P Near	 00000000 FLAT	Length= 00000000 External STDCALL
IsDigit  . . . . . . . . . . . .	P Near	 00000000 FLAT	Length= 00000000 External STDCALL
LocalFree  . . . . . . . . . . .	P Near	 00000000 FLAT	Length= 00000000 External STDCALL
MessageBoxA  . . . . . . . . . .	P Near	 00000000 FLAT	Length= 00000000 External STDCALL
MsgBoxAsk  . . . . . . . . . . .	P Near	 00000000 FLAT	Length= 00000000 External STDCALL
MsgBox . . . . . . . . . . . . .	P Near	 00000000 FLAT	Length= 00000000 External STDCALL
Negate_CurntTemp . . . . . . . .	P Near	 000002D7 _TEXT	Length= 00000023 Public STDCALL
  originalValue  . . . . . . . .	DWord	 bp - 00000004
  negatedValue . . . . . . . . .	DWord	 bp - 00000008
OpenInputFile  . . . . . . . . .	P Near	 00000000 FLAT	Length= 00000000 External STDCALL
ParseDecimal32 . . . . . . . . .	P Near	 00000000 FLAT	Length= 00000000 External STDCALL
ParseInteger32 . . . . . . . . .	P Near	 00000000 FLAT	Length= 00000000 External STDCALL
ParseTempsFromString . . . . . .	P Near	 00000187 _TEXT	Length= 000000F4 Public STDCALL
  str_CrntTemp . . . . . . . . .	Byte	 bp - 00000005
  int_Len_Str_CrntTemp . . . . .	DWord	 bp - 0000000C
  int_Sign . . . . . . . . . . .	DWord	 bp - 00000010
  int_RowIndex . . . . . . . . .	DWord	 bp - 00000014
  int_ColIndex . . . . . . . . .	DWord	 bp - 00000018
  int_CrntTemp . . . . . . . . .	DWord	 bp - 0000001C
  int_PrevDlmterPos  . . . . . .	DWord	 bp - 00000020
  int_CrntDlmterPos  . . . . . .	DWord	 bp - 00000024
  offset_File_TempReadings . . .	DWord	 bp - 00000028
  int_LenMatrix  . . . . . . . .	DWord	 bp - 0000002C
  int_WidthMatrix  . . . . . . .	DWord	 bp - 00000030
  _Loop_Rows . . . . . . . . . .	L Near	 000001B9 _TEXT	
  _Loop_Columns  . . . . . . . .	L Near	 000001C1 _TEXT	
  _Save_ToTempMatrix . . . . . .	L Near	 00000210 _TEXT	
  _End_LoopColumns . . . . . . .	L Near	 00000239 _TEXT	
  _End_LoopRows  . . . . . . . .	L Near	 00000271 _TEXT	
PeekConsoleInputA  . . . . . . .	P Near	 00000000 FLAT	Length= 00000000 External STDCALL
Random32 . . . . . . . . . . . .	P Near	 00000000 FLAT	Length= 00000000 External STDCALL
RandomRange  . . . . . . . . . .	P Near	 00000000 FLAT	Length= 00000000 External STDCALL
Randomize  . . . . . . . . . . .	P Near	 00000000 FLAT	Length= 00000000 External STDCALL
ReadChar . . . . . . . . . . . .	P Near	 00000000 FLAT	Length= 00000000 External STDCALL
ReadConsoleA . . . . . . . . . .	P Near	 00000000 FLAT	Length= 00000000 External STDCALL
ReadConsoleInputA  . . . . . . .	P Near	 00000000 FLAT	Length= 00000000 External STDCALL
ReadDec  . . . . . . . . . . . .	P Near	 00000000 FLAT	Length= 00000000 External STDCALL
ReadFile . . . . . . . . . . . .	P Near	 00000000 FLAT	Length= 00000000 External STDCALL
ReadFloat  . . . . . . . . . . .	P Near	 00000000 FLAT	Length= 00000000 External STDCALL
ReadFromFile . . . . . . . . . .	P Near	 00000000 FLAT	Length= 00000000 External STDCALL
ReadHex  . . . . . . . . . . . .	P Near	 00000000 FLAT	Length= 00000000 External STDCALL
ReadInt  . . . . . . . . . . . .	P Near	 00000000 FLAT	Length= 00000000 External STDCALL
ReadKeyFlush . . . . . . . . . .	P Near	 00000000 FLAT	Length= 00000000 External STDCALL
ReadKey  . . . . . . . . . . . .	P Near	 00000000 FLAT	Length= 00000000 External STDCALL
ReadString . . . . . . . . . . .	P Near	 00000000 FLAT	Length= 00000000 External STDCALL
Save_CrntTemp_ToMatrix . . . . .	P Near	 0000027B _TEXT	Length= 0000005C Public STDCALL
  crntTemp . . . . . . . . . . .	DWord	 bp - 00000004
  rowIndex . . . . . . . . . . .	DWord	 bp - 00000008
  colIndex . . . . . . . . . . .	DWord	 bp - 0000000C
  offset_TempMatrixLoc . . . . .	DWord	 bp - 00000010
  intWidthMatrix . . . . . . . .	DWord	 bp - 00000014
  elementIndex . . . . . . . . .	DWord	 bp - 00000018
  byteOffset . . . . . . . . . .	DWord	 bp - 0000001C
  destAddress  . . . . . . . . .	DWord	 bp - 00000020
SetConsoleCursorInfo . . . . . .	P Near	 00000000 FLAT	Length= 00000000 External STDCALL
SetConsoleCursorPosition . . . .	P Near	 00000000 FLAT	Length= 00000000 External STDCALL
SetConsoleMode . . . . . . . . .	P Near	 00000000 FLAT	Length= 00000000 External STDCALL
SetConsoleScreenBufferSize . . .	P Near	 00000000 FLAT	Length= 00000000 External STDCALL
SetConsoleTextAttribute  . . . .	P Near	 00000000 FLAT	Length= 00000000 External STDCALL
SetConsoleTitleA . . . . . . . .	P Near	 00000000 FLAT	Length= 00000000 External STDCALL
SetConsoleWindowInfo . . . . . .	P Near	 00000000 FLAT	Length= 00000000 External STDCALL
SetFilePointer . . . . . . . . .	P Near	 00000000 FLAT	Length= 00000000 External STDCALL
SetLocalTime . . . . . . . . . .	P Near	 00000000 FLAT	Length= 00000000 External STDCALL
SetTextColor . . . . . . . . . .	P Near	 00000000 FLAT	Length= 00000000 External STDCALL
ShowFPUStack . . . . . . . . . .	P Near	 00000000 FLAT	Length= 00000000 External STDCALL
Sleep  . . . . . . . . . . . . .	P Near	 00000000 FLAT	Length= 00000000 External STDCALL
StrLength  . . . . . . . . . . .	P Near	 00000000 FLAT	Length= 00000000 External STDCALL
Str_compare  . . . . . . . . . .	P Near	 00000000 FLAT	Length= 00000000 External STDCALL
Str_copy . . . . . . . . . . . .	P Near	 00000000 FLAT	Length= 00000000 External STDCALL
Str_length . . . . . . . . . . .	P Near	 00000000 FLAT	Length= 00000000 External STDCALL
Str_trim . . . . . . . . . . . .	P Near	 00000000 FLAT	Length= 00000000 External STDCALL
Str_ucase  . . . . . . . . . . .	P Near	 00000000 FLAT	Length= 00000000 External STDCALL
SystemTimeToFileTime . . . . . .	P Near	 00000000 FLAT	Length= 00000000 External STDCALL
WaitMsg  . . . . . . . . . . . .	P Near	 00000000 FLAT	Length= 00000000 External STDCALL
WriteBinB  . . . . . . . . . . .	P Near	 00000000 FLAT	Length= 00000000 External STDCALL
WriteBin . . . . . . . . . . . .	P Near	 00000000 FLAT	Length= 00000000 External STDCALL
WriteChar  . . . . . . . . . . .	P Near	 00000000 FLAT	Length= 00000000 External STDCALL
WriteConsoleA  . . . . . . . . .	P Near	 00000000 FLAT	Length= 00000000 External STDCALL
WriteConsoleOutputAttribute  . .	P Near	 00000000 FLAT	Length= 00000000 External STDCALL
WriteConsoleOutputCharacterA . .	P Near	 00000000 FLAT	Length= 00000000 External STDCALL
WriteDec . . . . . . . . . . . .	P Near	 00000000 FLAT	Length= 00000000 External STDCALL
WriteFile  . . . . . . . . . . .	P Near	 00000000 FLAT	Length= 00000000 External STDCALL
WriteFloat . . . . . . . . . . .	P Near	 00000000 FLAT	Length= 00000000 External STDCALL
WriteHexB  . . . . . . . . . . .	P Near	 00000000 FLAT	Length= 00000000 External STDCALL
WriteHex . . . . . . . . . . . .	P Near	 00000000 FLAT	Length= 00000000 External STDCALL
WriteInt . . . . . . . . . . . .	P Near	 00000000 FLAT	Length= 00000000 External STDCALL
WriteStackFrameName  . . . . . .	P Near	 00000000 FLAT	Length= 00000000 External STDCALL
WriteStackFrame  . . . . . . . .	P Near	 00000000 FLAT	Length= 00000000 External STDCALL
WriteString  . . . . . . . . . .	P Near	 00000000 FLAT	Length= 00000000 External STDCALL
WriteTempsReverse  . . . . . . .	P Near	 000000EC _TEXT	Length= 0000009B Public STDCALL
  crnt_Temp  . . . . . . . . . .	DWord	 bp - 00000004
  row_Index  . . . . . . . . . .	DWord	 bp - 00000008
  col_Index  . . . . . . . . . .	DWord	 bp - 0000000C
  offset_TempMatrix  . . . . . .	DWord	 bp - 00000010
  offset_CrntRow . . . . . . . .	DWord	 bp - 00000014
  len_Row  . . . . . . . . . . .	DWord	 bp - 00000018
  offset_StrMsg  . . . . . . . .	DWord	 bp - 0000001C
  _LoopRows  . . . . . . . . . .	L Near	 0000010F _TEXT	
  _ScanLoop  . . . . . . . . . .	L Near	 00000125 _TEXT	
  _StoreRowLen . . . . . . . . .	L Near	 0000012B _TEXT	
  _LoopColumns . . . . . . . . .	L Near	 00000147 _TEXT	
  _End_LoopColumns . . . . . . .	L Near	 0000015F _TEXT	
  _End_LoopRows  . . . . . . . .	L Near	 00000178 _TEXT	
WriteToFile  . . . . . . . . . .	P Near	 00000000 FLAT	Length= 00000000 External STDCALL
WriteVal . . . . . . . . . . . .	P Near	 0000007A _TEXT	Length= 00000072 Public STDCALL
  buffer . . . . . . . . . . . .	Byte	 bp - 00000005
  index  . . . . . . . . . . . .	DWord	 bp - 0000000C
  isNegative . . . . . . . . . .	Byte	 bp - 0000000D
  digitCount . . . . . . . . . .	DWord	 bp - 00000014
  ConvertNumber  . . . . . . . .	L Near	 000000A7 _TEXT	
  DigitLoop  . . . . . . . . . .	L Near	 000000AC _TEXT	
  PrintNumber  . . . . . . . . .	L Near	 000000CB _TEXT	
  PrintDigits  . . . . . . . . .	L Near	 000000DA _TEXT	
WriteWindowsMsg  . . . . . . . .	P Near	 00000000 FLAT	Length= 00000000 External STDCALL
main . . . . . . . . . . . . . .	P Near	 00000000 _TEXT	Length= 0000007A Public STDCALL
printf . . . . . . . . . . . . .	P Near	 00000000 FLAT	Length= 00000000 External C
scanf  . . . . . . . . . . . . .	P Near	 00000000 FLAT	Length= 00000000 External C
wsprintfA  . . . . . . . . . . .	P Near	 00000000 FLAT	Length= 00000000 External C


Symbols:

                N a m e                 Type     Value    Attr

@CodeSize  . . . . . . . . . . .	Number	 00000000h   
@DataSize  . . . . . . . . . . .	Number	 00000000h   
@Interface . . . . . . . . . . .	Number	 00000003h   
@Model . . . . . . . . . . . . .	Number	 00000007h   
@code  . . . . . . . . . . . . .	Text   	 _TEXT
@data  . . . . . . . . . . . . .	Text   	 FLAT
@fardata?  . . . . . . . . . . .	Text   	 FLAT
@fardata . . . . . . . . . . . .	Text   	 FLAT
@stack . . . . . . . . . . . . .	Text   	 FLAT
ALT_MASK . . . . . . . . . . . .	Number	 00000003h   
CAPSLOCK_ON  . . . . . . . . . .	Number	 00000080h   
CREATE_ALWAYS  . . . . . . . . .	Number	 00000002h   
CREATE_NEW . . . . . . . . . . .	Number	 00000001h   
CTRL_MASK  . . . . . . . . . . .	Number	 0000000Ch   
CreateFile . . . . . . . . . . .	Text   	 CreateFileA
DELIMITER  . . . . . . . . . . .	Number	 0000002Ch   
DO_NOT_SHARE . . . . . . . . . .	Number	 00000000h   
ENABLE_ECHO_INPUT  . . . . . . .	Number	 00000004h   
ENABLE_LINE_INPUT  . . . . . . .	Number	 00000002h   
ENABLE_MOUSE_INPUT . . . . . . .	Number	 00000010h   
ENABLE_PROCESSED_INPUT . . . . .	Number	 00000001h   
ENABLE_PROCESSED_OUTPUT  . . . .	Number	 00000001h   
ENABLE_WINDOW_INPUT  . . . . . .	Number	 00000008h   
ENABLE_WRAP_AT_EOL_OUTPUT  . . .	Number	 00000002h   
ENHANCED_KEY . . . . . . . . . .	Number	 00000100h   
FALSE  . . . . . . . . . . . . .	Number	 00000000h   
FILE_APPEND_DATA . . . . . . . .	Number	 00000004h   
FILE_ATTRIBUTE_ARCHIVE . . . . .	Number	 00000020h   
FILE_ATTRIBUTE_COMPRESSED  . . .	Number	 00000800h   
FILE_ATTRIBUTE_DEVICE  . . . . .	Number	 00000040h   
FILE_ATTRIBUTE_DIRECTORY . . . .	Number	 00000010h   
FILE_ATTRIBUTE_ENCRYPTED . . . .	Number	 00004000h   
FILE_ATTRIBUTE_HIDDEN  . . . . .	Number	 00000002h   
FILE_ATTRIBUTE_NORMAL  . . . . .	Number	 00000080h   
FILE_ATTRIBUTE_NOT_CONTENT_INDEXED .	Number	 00002000h   
FILE_ATTRIBUTE_OFFLINE . . . . .	Number	 00001000h   
FILE_ATTRIBUTE_READONLY  . . . .	Number	 00000001h   
FILE_ATTRIBUTE_REPARSE_POINT . .	Number	 00000400h   
FILE_ATTRIBUTE_SPARSE_FILE . . .	Number	 00000200h   
FILE_ATTRIBUTE_SYSTEM  . . . . .	Number	 00000004h   
FILE_ATTRIBUTE_TEMPORARY . . . .	Number	 00000100h   
FILE_BEGIN . . . . . . . . . . .	Number	 00000000h   
FILE_CURRENT . . . . . . . . . .	Number	 00000001h   
FILE_DELETE_CHILD  . . . . . . .	Number	 00000040h   
FILE_END . . . . . . . . . . . .	Number	 00000002h   
FILE_READ_DATA . . . . . . . . .	Number	 00000001h   
FILE_SHARE_DELETE  . . . . . . .	Number	 00000004h   
FILE_SHARE_READ  . . . . . . . .	Number	 00000001h   
FILE_SHARE_WRITE . . . . . . . .	Number	 00000002h   
FILE_WRITE_DATA  . . . . . . . .	Number	 00000002h   
FOCUS_EVENT  . . . . . . . . . .	Number	 00000010h   
FORMAT_MESSAGE_ALLOCATE_BUFFER .	Number	 00000100h   
FORMAT_MESSAGE_FROM_SYSTEM . . .	Number	 00001000h   
FormatMessage  . . . . . . . . .	Text   	 FormatMessageA
GENERIC_ALL  . . . . . . . . . .	Number	 10000000h   
GENERIC_EXECUTE  . . . . . . . .	Number	 20000000h   
GENERIC_READ . . . . . . . . . .	Number	 -80000000h   
GENERIC_WRITE  . . . . . . . . .	Number	 40000000h   
GetCommandLine . . . . . . . . .	Text   	 GetCommandLineA
HANDLE . . . . . . . . . . . . .	Text   	 DWORD
HEAP_GENERATE_EXCEPTIONS . . . .	Number	 00000004h   
HEAP_GROWABLE  . . . . . . . . .	Number	 00000002h   
HEAP_NO_SERIALIZE  . . . . . . .	Number	 00000001h   
HEAP_REALLOC_IN_PLACE_ONLY . . .	Number	 00000010h   
HEAP_ZERO_MEMORY . . . . . . . .	Number	 00000008h   
IDABORT  . . . . . . . . . . . .	Number	 00000003h   
IDCANCEL . . . . . . . . . . . .	Number	 00000002h   
IDCLOSE  . . . . . . . . . . . .	Number	 00000008h   
IDCONTINUE . . . . . . . . . . .	Number	 0000000Bh   
IDHELP . . . . . . . . . . . . .	Number	 00000009h   
IDIGNORE . . . . . . . . . . . .	Number	 00000005h   
IDNO . . . . . . . . . . . . . .	Number	 00000007h   
IDOK . . . . . . . . . . . . . .	Number	 00000001h   
IDRETRY  . . . . . . . . . . . .	Number	 00000004h   
IDTIMEOUT  . . . . . . . . . . .	Number	 00007D00h   
IDTRYAGAIN . . . . . . . . . . .	Number	 0000000Ah   
IDYES  . . . . . . . . . . . . .	Number	 00000006h   
INVALID_HANDLE_VALUE . . . . . .	Number	 -00000001h   
KBDOWN_FLAG  . . . . . . . . . .	Number	 00000001h   
KEY_EVENT  . . . . . . . . . . .	Number	 00000001h   
KEY_MASKS  . . . . . . . . . . .	Number	 0000001Fh   
LEFT_ALT_PRESSED . . . . . . . .	Number	 00000002h   
LEFT_CTRL_PRESSED  . . . . . . .	Number	 00000008h   
MB_ABORTRETRYIGNORE  . . . . . .	Number	 00000002h   
MB_APPLMODAL . . . . . . . . . .	Number	 00000000h   
MB_CANCELTRYCONTINUE . . . . . .	Number	 00000006h   
MB_DEFBUTTON1  . . . . . . . . .	Number	 00000000h   
MB_DEFBUTTON2  . . . . . . . . .	Number	 00000100h   
MB_DEFBUTTON3  . . . . . . . . .	Number	 00000200h   
MB_DEFBUTTON4  . . . . . . . . .	Number	 00000300h   
MB_HELP  . . . . . . . . . . . .	Number	 00004000h   
MB_ICONASTERISK  . . . . . . . .	Number	 00000040h   
MB_ICONERROR . . . . . . . . . .	Number	 00000010h   
MB_ICONEXCLAMATION . . . . . . .	Number	 00000030h   
MB_ICONHAND  . . . . . . . . . .	Number	 00000010h   
MB_ICONINFORMATION . . . . . . .	Number	 00000040h   
MB_ICONQUESTION  . . . . . . . .	Number	 00000020h   
MB_ICONSTOP  . . . . . . . . . .	Number	 00000010h   
MB_ICONWARNING . . . . . . . . .	Number	 00000030h   
MB_OKCANCEL  . . . . . . . . . .	Number	 00000001h   
MB_OK  . . . . . . . . . . . . .	Number	 00000000h   
MB_RETRYCANCEL . . . . . . . . .	Number	 00000005h   
MB_SYSTEMMODAL . . . . . . . . .	Number	 00001000h   
MB_TASKMODAL . . . . . . . . . .	Number	 00002000h   
MB_USERICON  . . . . . . . . . .	Number	 00000080h   
MB_YESNOCANCEL . . . . . . . . .	Number	 00000003h   
MB_YESNO . . . . . . . . . . . .	Number	 00000004h   
MENU_EVENT . . . . . . . . . . .	Number	 00000008h   
MOUSE_EVENT  . . . . . . . . . .	Number	 00000002h   
MessageBox . . . . . . . . . . .	Text   	 MessageBoxA
NULL . . . . . . . . . . . . . .	Number	 00000000h   
NUMLOCK_ON . . . . . . . . . . .	Number	 00000020h   
OPEN_ALWAYS  . . . . . . . . . .	Number	 00000004h   
OPEN_EXISTING  . . . . . . . . .	Number	 00000003h   
PeekConsoleInput . . . . . . . .	Text   	 PeekConsoleInputA
RIGHT_ALT_PRESSED  . . . . . . .	Number	 00000001h   
RIGHT_CTRL_PRESSED . . . . . . .	Number	 00000004h   
ReadConsoleInput . . . . . . . .	Text   	 ReadConsoleInputA
ReadConsole  . . . . . . . . . .	Text   	 ReadConsoleA
SCROLLLOCK_ON  . . . . . . . . .	Number	 00000040h   
SHIFT_MASK . . . . . . . . . . .	Number	 00000010h   
SHIFT_PRESSED  . . . . . . . . .	Number	 00000010h   
STD_ERROR_HANDLE . . . . . . . .	Number	 -0000000Ch   
STD_INPUT_HANDLE . . . . . . . .	Number	 -0000000Ah   
STD_OUTPUT_HANDLE  . . . . . . .	Number	 -0000000Bh   
STR_MSGASCII . . . . . . . . . .	Byte	 00000D37 _DATA	
STR_MSGCONVERTED . . . . . . . .	Byte	 00000D8B _DATA	
STR_MSGCONVERTING  . . . . . . .	Byte	 00000D78 _DATA	
STR_MSGFIRSTCHAR . . . . . . . .	Byte	 00000D2A _DATA	
STR_MSGINTSIGN . . . . . . . . .	Byte	 00000D64 _DATA	
STR_MSGLENGTH  . . . . . . . . .	Byte	 00000D6F _DATA	
STR_MSGPASSEDSTRING  . . . . . .	Byte	 00000D1A _DATA	
STR_MSGPOINTER . . . . . . . . .	Byte	 00000D0A _DATA	
STR_MSGSHIFTEDSTRING . . . . . .	Byte	 00000D53 _DATA	
STR_MSGSHIFTING  . . . . . . . .	Byte	 00000D40 _DATA	
SetConsoleTitle  . . . . . . . .	Text   	 SetConsoleTitleA
TAB  . . . . . . . . . . . . . .	Number	 00000009h   
TEMPS_PER_DAY  . . . . . . . . .	Number	 00000005h   
TRUE . . . . . . . . . . . . . .	Number	 00000001h   
TRUNCATE_EXISTING  . . . . . . .	Number	 00000005h   
VK_11  . . . . . . . . . . . . .	Number	 000000BDh   
VK_12  . . . . . . . . . . . . .	Number	 000000BBh   
VK_ADD . . . . . . . . . . . . .	Number	 0000006Bh   
VK_BACK  . . . . . . . . . . . .	Number	 00000008h   
VK_CANCEL  . . . . . . . . . . .	Number	 00000003h   
VK_CAPITAL . . . . . . . . . . .	Number	 00000014h   
VK_CLEAR . . . . . . . . . . . .	Number	 0000000Ch   
VK_CONTROL . . . . . . . . . . .	Number	 00000011h   
VK_DECIMAL . . . . . . . . . . .	Number	 0000006Eh   
VK_DELETE  . . . . . . . . . . .	Number	 0000002Eh   
VK_DIVIDE  . . . . . . . . . . .	Number	 0000006Fh   
VK_DOWN  . . . . . . . . . . . .	Number	 00000028h   
VK_END . . . . . . . . . . . . .	Number	 00000023h   
VK_ESCAPE  . . . . . . . . . . .	Number	 0000001Bh   
VK_EXECUTE . . . . . . . . . . .	Number	 0000002Bh   
VK_F10 . . . . . . . . . . . . .	Number	 00000079h   
VK_F11 . . . . . . . . . . . . .	Number	 0000007Ah   
VK_F12 . . . . . . . . . . . . .	Number	 0000007Bh   
VK_F13 . . . . . . . . . . . . .	Number	 0000007Ch   
VK_F14 . . . . . . . . . . . . .	Number	 0000007Dh   
VK_F15 . . . . . . . . . . . . .	Number	 0000007Eh   
VK_F16 . . . . . . . . . . . . .	Number	 0000007Fh   
VK_F17 . . . . . . . . . . . . .	Number	 00000080h   
VK_F18 . . . . . . . . . . . . .	Number	 00000081h   
VK_F19 . . . . . . . . . . . . .	Number	 00000082h   
VK_F1  . . . . . . . . . . . . .	Number	 00000070h   
VK_F20 . . . . . . . . . . . . .	Number	 00000083h   
VK_F21 . . . . . . . . . . . . .	Number	 00000084h   
VK_F22 . . . . . . . . . . . . .	Number	 00000085h   
VK_F23 . . . . . . . . . . . . .	Number	 00000086h   
VK_F24 . . . . . . . . . . . . .	Number	 00000087h   
VK_F2  . . . . . . . . . . . . .	Number	 00000071h   
VK_F3  . . . . . . . . . . . . .	Number	 00000072h   
VK_F4  . . . . . . . . . . . . .	Number	 00000073h   
VK_F5  . . . . . . . . . . . . .	Number	 00000074h   
VK_F6  . . . . . . . . . . . . .	Number	 00000075h   
VK_F7  . . . . . . . . . . . . .	Number	 00000076h   
VK_F8  . . . . . . . . . . . . .	Number	 00000077h   
VK_F9  . . . . . . . . . . . . .	Number	 00000078h   
VK_HELP  . . . . . . . . . . . .	Number	 0000002Fh   
VK_HOME  . . . . . . . . . . . .	Number	 00000024h   
VK_INSERT  . . . . . . . . . . .	Number	 0000002Dh   
VK_LBUTTON . . . . . . . . . . .	Number	 00000001h   
VK_LCONTROL  . . . . . . . . . .	Number	 000000A2h   
VK_LEFT  . . . . . . . . . . . .	Number	 00000025h   
VK_LMENU . . . . . . . . . . . .	Number	 000000A4h   
VK_LSHIFT  . . . . . . . . . . .	Number	 000000A0h   
VK_MENU  . . . . . . . . . . . .	Number	 00000012h   
VK_MULTIPLY  . . . . . . . . . .	Number	 0000006Ah   
VK_NEXT  . . . . . . . . . . . .	Number	 00000022h   
VK_NUMLOCK . . . . . . . . . . .	Number	 00000090h   
VK_NUMPAD0 . . . . . . . . . . .	Number	 00000060h   
VK_NUMPAD1 . . . . . . . . . . .	Number	 00000061h   
VK_NUMPAD2 . . . . . . . . . . .	Number	 00000062h   
VK_NUMPAD3 . . . . . . . . . . .	Number	 00000063h   
VK_NUMPAD4 . . . . . . . . . . .	Number	 00000064h   
VK_NUMPAD5 . . . . . . . . . . .	Number	 00000065h   
VK_NUMPAD6 . . . . . . . . . . .	Number	 00000066h   
VK_NUMPAD7 . . . . . . . . . . .	Number	 00000067h   
VK_NUMPAD8 . . . . . . . . . . .	Number	 00000068h   
VK_NUMPAD9 . . . . . . . . . . .	Number	 00000069h   
VK_PAUSE . . . . . . . . . . . .	Number	 00000013h   
VK_PRINT . . . . . . . . . . . .	Number	 0000002Ah   
VK_PRIOR . . . . . . . . . . . .	Number	 00000021h   
VK_RBUTTON . . . . . . . . . . .	Number	 00000002h   
VK_RCONTROL  . . . . . . . . . .	Number	 000000A3h   
VK_RETURN  . . . . . . . . . . .	Number	 0000000Dh   
VK_RIGHT . . . . . . . . . . . .	Number	 00000027h   
VK_RMENU . . . . . . . . . . . .	Number	 000000A5h   
VK_RSHIFT  . . . . . . . . . . .	Number	 000000A1h   
VK_SCROLL  . . . . . . . . . . .	Number	 00000091h   
VK_SEPARATER . . . . . . . . . .	Number	 0000006Ch   
VK_SHIFT . . . . . . . . . . . .	Number	 00000010h   
VK_SNAPSHOT  . . . . . . . . . .	Number	 0000002Ch   
VK_SPACE . . . . . . . . . . . .	Number	 00000020h   
VK_SUBTRACT  . . . . . . . . . .	Number	 0000006Dh   
VK_TAB . . . . . . . . . . . . .	Number	 00000009h   
VK_UP  . . . . . . . . . . . . .	Number	 00000026h   
WINDOW_BUFFER_SIZE_EVENT . . . .	Number	 00000004h   
WriteConsoleOutputCharacter  . .	Text   	 WriteConsoleOutputCharacterA
WriteConsole . . . . . . . . . .	Text   	 WriteConsoleA
arr_TempMatrix . . . . . . . . .	DWord	 000006CA _DATA	
black  . . . . . . . . . . . . .	Number	 00000000h   
blue . . . . . . . . . . . . . .	Number	 00000001h   
brown  . . . . . . . . . . . . .	Number	 00000006h   
cyan . . . . . . . . . . . . . .	Number	 00000003h   
exit . . . . . . . . . . . . . .	Text   	 INVOKE ExitProcess,0
fileHandle . . . . . . . . . . .	DWord	 00000000 _DATA	
file_TempReadings  . . . . . . .	Byte	 000000A4 _DATA	
gray . . . . . . . . . . . . . .	Number	 00000008h   
green  . . . . . . . . . . . . .	Number	 00000002h   
int_BufferSizeFileName . . . . .	DWord	 0000048C _DATA	
int_BufferSizeTemperatureFile  .	DWord	 00000494 _DATA	
int_LenNameOfFile  . . . . . . .	DWord	 00000490 _DATA	
lightBlue  . . . . . . . . . . .	Number	 00000009h   
lightCyan  . . . . . . . . . . .	Number	 0000000Bh   
lightGray  . . . . . . . . . . .	Number	 00000007h   
lightGreen . . . . . . . . . . .	Number	 0000000Ah   
lightMagenta . . . . . . . . . .	Number	 0000000Dh   
lightRed . . . . . . . . . . . .	Number	 0000000Ch   
magenta  . . . . . . . . . . . .	Number	 00000005h   
red  . . . . . . . . . . . . . .	Number	 00000004h   
str_MsgAddressOfMatrix . . . . .	Byte	 0000060A _DATA	
str_MsgAfterSignCheck  . . . . .	Byte	 000005E1 _DATA	
str_MsgByteOffset  . . . . . . .	Byte	 00000DE3 _DATA	
str_MsgColIndex  . . . . . . . .	Byte	 00000DBA _DATA	
str_MsgConvertedInt  . . . . . .	Byte	 000005C3 _DATA	
str_MsgCrntDlmtrPos  . . . . . .	Byte	 000004E7 _DATA	
str_MsgCrntRowLen  . . . . . . .	Byte	 0000063F _DATA	
str_MsgCurrentTempIteration  . .	Byte	 0000051A _DATA	
str_MsgCurrentTemp . . . . . . .	Byte	 00000D9F _DATA	
str_MsgDestAddress . . . . . . .	Byte	 00000DF1 _DATA	
str_MsgDisplayReversedRow  . . .	Byte	 000006A2 _DATA	
str_MsgElementIndex  . . . . . .	Byte	 00000DD3 _DATA	
str_MsgFirstElementCrntRow . . .	Byte	 0000066D _DATA	
str_MsgLoadedFile  . . . . . . .	Byte	 00000508 _DATA	
str_MsgMatrixPtr . . . . . . . .	Byte	 00000DC6 _DATA	
str_MsgNumberofColumns . . . . .	Byte	 000004AD _DATA	
str_MsgNumberofRows  . . . . . .	Byte	 00000498 _DATA	
str_MsgPrevDlmtrPos  . . . . . .	Byte	 000004C5 _DATA	
str_MsgPromptFileName  . . . . .	Byte	 00000004 _DATA	
str_MsgRowIndex  . . . . . . . .	Byte	 00000DAE _DATA	
str_MsgSavedInteger  . . . . . .	Byte	 00000E07 _DATA	
str_MsgSignRemoved . . . . . . .	Byte	 00000582 _DATA	
str_MsgSign  . . . . . . . . . .	Byte	 00000546 _DATA	
str_NameOfFile . . . . . . . . .	Byte	 00000040 _DATA	
white  . . . . . . . . . . . . .	Number	 0000000Fh   
wsprintf . . . . . . . . . . . .	Text   	 wsprintfA
yellow . . . . . . . . . . . . .	Number	 0000000Eh   

	   4 Warnings
	   0 Errors
